(dp1
S'layout'
p2
(ilayout
Layout
p3
(dp4
S'capsules'
p5
(lp6
(I1
I6
tp7
a(I26
I6
tp8
a(I1
I23
tp9
a(I26
I23
tp10
asS'numGhosts'
p11
I4
sS'food'
p12
(igame
Grid
p13
(dp14
S'CELLS_PER_INT'
p15
I30
sS'width'
p16
I28
sS'data'
p17
(lp18
(lp19
I00
aI00
aI00
aI00
aI00
aI00
aI00
aI00
aI00
aI00
aI00
aI00
aI00
aI00
aI00
aI00
aI00
aI00
aI00
aI00
aI00
aI00
aI00
aI00
aI00
aI00
aI00
aa(lp20
I00
aI01
aI01
aI01
aI00
aI00
aI00
aI01
aI01
aI01
aI00
aI00
aI00
aI00
aI00
aI00
aI00
aI00
aI01
aI01
aI01
aI01
aI01
aI00
aI01
aI01
aI00
aa(lp21
I00
aI01
aI00
aI01
aI00
aI00
aI01
aI00
aI00
aI01
aI00
aI00
aI00
aI00
aI00
aI00
aI00
aI00
aI01
aI00
aI00
aI01
aI00
aI00
aI00
aI01
aI00
aa(lp22
I00
aI01
aI00
aI01
aI01
aI01
aI01
aI00
aI00
aI01
aI00
aI00
aI00
aI00
aI00
aI00
aI00
aI00
aI01
aI00
aI00
aI01
aI00
aI00
aI00
aI01
aI00
aa(lp23
I00
aI01
aI00
aI01
aI00
aI00
aI00
aI00
aI00
aI01
aI00
aI00
aI00
aI00
aI00
aI00
aI00
aI00
aI01
aI00
aI00
aI01
aI00
aI00
aI00
aI01
aI00
aa(lp24
I00
aI01
aI00
aI01
aI00
aI00
aI00
aI00
aI00
aI01
aI00
aI00
aI00
aI00
aI00
aI00
aI00
aI00
aI01
aI00
aI00
aI01
aI00
aI00
aI00
aI01
aI00
aa(lp25
I00
aI01
aI00
aI01
aI01
aI01
aI01
aI01
aI01
aI01
aI01
aI01
aI01
aI01
aI01
aI01
aI01
aI01
aI01
aI01
aI01
aI01
aI01
aI01
aI01
aI01
aI00
aa(lp26
I00
aI01
aI00
aI00
aI00
aI00
aI01
aI00
aI00
aI01
aI00
aI00
aI00
aI00
aI00
aI00
aI00
aI00
aI00
aI00
aI00
aI01
aI00
aI00
aI00
aI01
aI00
aa(lp27
I00
aI01
aI00
aI00
aI00
aI00
aI01
aI00
aI00
aI01
aI00
aI00
aI00
aI00
aI00
aI00
aI00
aI00
aI00
aI00
aI00
aI01
aI00
aI00
aI00
aI01
aI00
aa(lp28
I00
aI01
aI00
aI01
aI01
aI01
aI01
aI00
aI00
aI01
aI00
aI00
aI00
aI00
aI00
aI00
aI00
aI00
aI01
aI01
aI01
aI01
aI00
aI00
aI00
aI01
aI00
aa(lp29
I00
aI01
aI00
aI01
aI00
aI00
aI01
aI00
aI00
aI01
aI00
aI00
aI00
aI00
aI00
aI00
aI00
aI00
aI01
aI00
aI00
aI01
aI00
aI00
aI00
aI01
aI00
aa(lp30
I00
aI01
aI00
aI01
aI00
aI00
aI01
aI00
aI00
aI01
aI00
aI00
aI00
aI00
aI00
aI00
aI00
aI00
aI01
aI00
aI00
aI01
aI00
aI00
aI00
aI01
aI00
aa(lp31
I00
aI01
aI01
aI01
aI00
aI00
aI01
aI01
aI01
aI01
aI00
aI00
aI00
aI00
aI00
aI00
aI00
aI00
aI01
aI00
aI00
aI01
aI01
aI01
aI01
aI01
aI00
aa(lp32
I00
aI01
aI00
aI00
aI00
aI00
aI00
aI00
aI00
aI00
aI00
aI00
aI00
aI00
aI00
aI00
aI00
aI00
aI00
aI00
aI00
aI01
aI00
aI00
aI00
aI00
aI00
aa(lp33
I00
aI00
aI00
aI00
aI00
aI00
aI00
aI00
aI00
aI00
aI00
aI00
aI00
aI00
aI00
aI00
aI00
aI00
aI00
aI00
aI00
aI01
aI00
aI00
aI00
aI00
aI00
aa(lp34
I00
aI01
aI01
aI01
aI00
aI00
aI01
aI01
aI01
aI01
aI00
aI00
aI00
aI00
aI00
aI00
aI00
aI00
aI01
aI00
aI00
aI01
aI01
aI01
aI01
aI01
aI00
aa(lp35
I00
aI01
aI00
aI01
aI00
aI00
aI01
aI00
aI00
aI01
aI00
aI00
aI00
aI00
aI00
aI00
aI00
aI00
aI01
aI00
aI00
aI01
aI00
aI00
aI00
aI01
aI00
aa(lp36
I00
aI01
aI00
aI01
aI00
aI00
aI01
aI00
aI00
aI01
aI00
aI00
aI00
aI00
aI00
aI00
aI00
aI00
aI01
aI00
aI00
aI01
aI00
aI00
aI00
aI01
aI00
aa(lp37
I00
aI01
aI00
aI01
aI01
aI01
aI01
aI00
aI00
aI01
aI00
aI00
aI00
aI00
aI00
aI00
aI00
aI00
aI01
aI01
aI01
aI01
aI00
aI00
aI00
aI01
aI00
aa(lp38
I00
aI01
aI00
aI00
aI00
aI00
aI01
aI00
aI00
aI01
aI00
aI00
aI00
aI00
aI00
aI00
aI00
aI00
aI00
aI00
aI00
aI01
aI00
aI00
aI00
aI01
aI00
aa(lp39
I00
aI01
aI00
aI00
aI00
aI00
aI01
aI00
aI00
aI01
aI00
aI00
aI00
aI00
aI00
aI00
aI00
aI00
aI00
aI00
aI00
aI01
aI00
aI00
aI00
aI01
aI00
aa(lp40
I00
aI01
aI00
aI01
aI01
aI01
aI01
aI01
aI01
aI01
aI01
aI01
aI01
aI01
aI01
aI01
aI01
aI01
aI01
aI01
aI01
aI01
aI01
aI01
aI01
aI01
aI00
aa(lp41
I00
aI01
aI00
aI01
aI00
aI00
aI00
aI00
aI00
aI01
aI00
aI00
aI00
aI00
aI00
aI00
aI00
aI00
aI01
aI00
aI00
aI01
aI00
aI00
aI00
aI01
aI00
aa(lp42
I00
aI01
aI00
aI01
aI00
aI00
aI00
aI00
aI00
aI01
aI00
aI00
aI00
aI00
aI00
aI00
aI00
aI00
aI01
aI00
aI00
aI01
aI00
aI00
aI00
aI01
aI00
aa(lp43
I00
aI01
aI00
aI01
aI01
aI01
aI01
aI00
aI00
aI01
aI00
aI00
aI00
aI00
aI00
aI00
aI00
aI00
aI01
aI00
aI00
aI01
aI00
aI00
aI00
aI01
aI00
aa(lp44
I00
aI01
aI00
aI01
aI00
aI00
aI01
aI00
aI00
aI01
aI00
aI00
aI00
aI00
aI00
aI00
aI00
aI00
aI01
aI00
aI00
aI01
aI00
aI00
aI00
aI01
aI00
aa(lp45
I00
aI01
aI01
aI01
aI00
aI00
aI00
aI01
aI01
aI01
aI00
aI00
aI00
aI00
aI00
aI00
aI00
aI00
aI01
aI01
aI01
aI01
aI01
aI00
aI01
aI01
aI00
aa(lp46
I00
aI00
aI00
aI00
aI00
aI00
aI00
aI00
aI00
aI00
aI00
aI00
aI00
aI00
aI00
aI00
aI00
aI00
aI00
aI00
aI00
aI00
aI00
aI00
aI00
aI00
aI00
aasS'height'
p47
I27
sbsS'agentPositions'
p48
(lp49
(I01
(I14
I1
tp50
tp51
a(I00
(I10
I13
tp52
tp53
a(I00
(I13
I13
tp54
tp55
a(I00
(I14
I13
tp56
tp57
a(I00
(I17
I13
tp58
tp59
asg47
I27
sg16
I28
sS'walls'
p60
(igame
Grid
p61
(dp62
g15
I30
sg16
I28
sg17
(lp63
(lp64
I01
aI01
aI01
aI01
aI01
aI01
aI01
aI01
aI01
aI01
aI01
aI01
aI01
aI01
aI01
aI01
aI01
aI01
aI01
aI01
aI01
aI01
aI01
aI01
aI01
aI01
aI01
aa(lp65
I01
aI00
aI00
aI00
aI01
aI01
aI00
aI00
aI00
aI00
aI01
aI01
aI01
aI00
aI01
aI01
aI01
aI01
aI00
aI00
aI00
aI00
aI00
aI00
aI00
aI00
aI01
aa(lp66
I01
aI00
aI01
aI00
aI01
aI01
aI00
aI01
aI01
aI00
aI01
aI01
aI01
aI00
aI01
aI01
aI01
aI01
aI00
aI01
aI01
aI00
aI01
aI01
aI01
aI00
aI01
aa(lp67
I01
aI00
aI01
aI00
aI00
aI00
aI00
aI01
aI01
aI00
aI01
aI01
aI01
aI00
aI01
aI01
aI01
aI01
aI00
aI01
aI01
aI00
aI01
aI01
aI01
aI00
aI01
aa(lp68
I01
aI00
aI01
aI00
aI01
aI01
aI01
aI01
aI01
aI00
aI01
aI01
aI01
aI00
aI01
aI01
aI01
aI01
aI00
aI01
aI01
aI00
aI01
aI01
aI01
aI00
aI01
aa(lp69
I01
aI00
aI01
aI00
aI01
aI01
aI01
aI01
aI01
aI00
aI01
aI01
aI01
aI00
aI01
aI01
aI01
aI01
aI00
aI01
aI01
aI00
aI01
aI01
aI01
aI00
aI01
aa(lp70
I01
aI00
aI01
aI00
aI00
aI00
aI00
aI00
aI00
aI00
aI00
aI00
aI00
aI00
aI00
aI00
aI00
aI00
aI00
aI00
aI00
aI00
aI00
aI00
aI00
aI00
aI01
aa(lp71
I01
aI00
aI01
aI01
aI01
aI01
aI00
aI01
aI01
aI00
aI01
aI01
aI01
aI00
aI01
aI01
aI01
aI01
aI01
aI01
aI01
aI00
aI01
aI01
aI01
aI00
aI01
aa(lp72
I01
aI00
aI01
aI01
aI01
aI01
aI00
aI01
aI01
aI00
aI00
aI00
aI00
aI00
aI00
aI00
aI01
aI01
aI01
aI01
aI01
aI00
aI01
aI01
aI01
aI00
aI01
aa(lp73
I01
aI00
aI01
aI00
aI00
aI00
aI00
aI01
aI01
aI00
aI01
aI00
aI01
aI01
aI01
aI00
aI01
aI01
aI00
aI00
aI00
aI00
aI01
aI01
aI01
aI00
aI01
aa(lp74
I01
aI00
aI01
aI00
aI01
aI01
aI00
aI01
aI01
aI00
aI01
aI00
aI01
aI00
aI01
aI00
aI01
aI01
aI00
aI01
aI01
aI00
aI01
aI01
aI01
aI00
aI01
aa(lp75
I01
aI00
aI01
aI00
aI01
aI01
aI00
aI01
aI01
aI00
aI01
aI00
aI01
aI00
aI01
aI00
aI01
aI01
aI00
aI01
aI01
aI00
aI01
aI01
aI01
aI00
aI01
aa(lp76
I01
aI00
aI00
aI00
aI01
aI01
aI00
aI00
aI00
aI00
aI01
aI00
aI01
aI00
aI01
aI00
aI00
aI00
aI00
aI01
aI01
aI00
aI00
aI00
aI00
aI00
aI01
aa(lp77
I01
aI00
aI01
aI01
aI01
aI01
aI00
aI01
aI01
aI01
aI01
aI00
aI01
aI00
aI00
aI00
aI01
aI01
aI01
aI01
aI01
aI00
aI01
aI01
aI01
aI01
aI01
aa(lp78
I01
aI00
aI01
aI01
aI01
aI01
aI00
aI01
aI01
aI01
aI01
aI00
aI01
aI00
aI00
aI00
aI01
aI01
aI01
aI01
aI01
aI00
aI01
aI01
aI01
aI01
aI01
aa(lp79
I01
aI00
aI00
aI00
aI01
aI01
aI00
aI00
aI00
aI00
aI01
aI00
aI01
aI00
aI01
aI00
aI00
aI00
aI00
aI01
aI01
aI00
aI00
aI00
aI00
aI00
aI01
aa(lp80
I01
aI00
aI01
aI00
aI01
aI01
aI00
aI01
aI01
aI00
aI01
aI00
aI01
aI00
aI01
aI00
aI01
aI01
aI00
aI01
aI01
aI00
aI01
aI01
aI01
aI00
aI01
aa(lp81
I01
aI00
aI01
aI00
aI01
aI01
aI00
aI01
aI01
aI00
aI01
aI00
aI01
aI00
aI01
aI00
aI01
aI01
aI00
aI01
aI01
aI00
aI01
aI01
aI01
aI00
aI01
aa(lp82
I01
aI00
aI01
aI00
aI00
aI00
aI00
aI01
aI01
aI00
aI01
aI00
aI01
aI01
aI01
aI00
aI01
aI01
aI00
aI00
aI00
aI00
aI01
aI01
aI01
aI00
aI01
aa(lp83
I01
aI00
aI01
aI01
aI01
aI01
aI00
aI01
aI01
aI00
aI00
aI00
aI00
aI00
aI00
aI00
aI01
aI01
aI01
aI01
aI01
aI00
aI01
aI01
aI01
aI00
aI01
aa(lp84
I01
aI00
aI01
aI01
aI01
aI01
aI00
aI01
aI01
aI00
aI01
aI01
aI01
aI00
aI01
aI01
aI01
aI01
aI01
aI01
aI01
aI00
aI01
aI01
aI01
aI00
aI01
aa(lp85
I01
aI00
aI01
aI00
aI00
aI00
aI00
aI00
aI00
aI00
aI00
aI00
aI00
aI00
aI00
aI00
aI00
aI00
aI00
aI00
aI00
aI00
aI00
aI00
aI00
aI00
aI01
aa(lp86
I01
aI00
aI01
aI00
aI01
aI01
aI01
aI01
aI01
aI00
aI01
aI01
aI01
aI00
aI01
aI01
aI01
aI01
aI00
aI01
aI01
aI00
aI01
aI01
aI01
aI00
aI01
aa(lp87
I01
aI00
aI01
aI00
aI01
aI01
aI01
aI01
aI01
aI00
aI01
aI01
aI01
aI00
aI01
aI01
aI01
aI01
aI00
aI01
aI01
aI00
aI01
aI01
aI01
aI00
aI01
aa(lp88
I01
aI00
aI01
aI00
aI00
aI00
aI00
aI01
aI01
aI00
aI01
aI01
aI01
aI00
aI01
aI01
aI01
aI01
aI00
aI01
aI01
aI00
aI01
aI01
aI01
aI00
aI01
aa(lp89
I01
aI00
aI01
aI00
aI01
aI01
aI00
aI01
aI01
aI00
aI01
aI01
aI01
aI00
aI01
aI01
aI01
aI01
aI00
aI01
aI01
aI00
aI01
aI01
aI01
aI00
aI01
aa(lp90
I01
aI00
aI00
aI00
aI01
aI01
aI00
aI00
aI00
aI00
aI01
aI01
aI01
aI00
aI01
aI01
aI01
aI01
aI00
aI00
aI00
aI00
aI00
aI00
aI00
aI00
aI01
aa(lp91
I01
aI01
aI01
aI01
aI01
aI01
aI01
aI01
aI01
aI01
aI01
aI01
aI01
aI01
aI01
aI01
aI01
aI01
aI01
aI01
aI01
aI01
aI01
aI01
aI01
aI01
aI01
aasg47
I27
sbsS'totalFood'
p92
I229
sS'layoutText'
p93
(lp94
S'%%%%%%%%%%%%%%%%%%%%%%%%%%%%'
p95
aS'%............%%............%'
p96
aS'%.%%%%.%%%%%.%%.%%%%%.%%%%.%'
p97
aS'%o%%%%.%%%%%.%%.%%%%%.%%%%o%'
p98
aS'%.%%%%.%%%%%.%%.%%%%%.%%%%.%'
p99
aS'%..........................%'
p100
aS'%.%%%%.%%.%%%%%%%%.%%.%%%%.%'
p101
aS'%.%%%%.%%.%%%%%%%%.%%.%%%%.%'
p102
aS'%......%%....%%....%%......%'
p103
aS'%%%%%%.%%%%% %% %%%%%.%%%%%%'
p104
aS'%%%%%%.%%%%% %% %%%%%.%%%%%%'
p105
aS'%%%%%%.%            %.%%%%%%'
p106
aS'%%%%%%.% %%%%  %%%% %.%%%%%%'
p107
aS'%     .  %G  GG  G%  .     %'
p108
aS'%%%%%%.% %%%%%%%%%% %.%%%%%%'
p109
aS'%%%%%%.%            %.%%%%%%'
p110
aS'%%%%%%.% %%%%%%%%%% %.%%%%%%'
p111
aS'%............%%............%'
p112
aS'%.%%%%.%%%%%.%%.%%%%%.%%%%.%'
p113
aS'%.%%%%.%%%%%.%%.%%%%%.%%%%.%'
p114
aS'%o..%%.......  .......%%..o%'
p115
aS'%%%.%%.%%.%%%%%%%%.%%.%%.%%%'
p116
aS'%%%.%%.%%.%%%%%%%%.%%.%%.%%%'
p117
aS'%......%%....%%....%%......%'
p118
aS'%.%%%%%%%%%%.%%.%%%%%%%%%%.%'
p119
aS'%.............P............%'
p120
aS'%%%%%%%%%%%%%%%%%%%%%%%%%%%%'
p121
asbsS'actions'
p122
(lp123
(I0
S'West'
p124
tp125
a(I1
S'East'
p126
tp127
a(I2
S'North'
p128
tp129
a(I3
g126
tp130
a(I4
g124
tp131
a(I0
g124
tp132
a(I1
g126
tp133
a(I2
g126
tp134
a(I3
g126
tp135
a(I4
g124
tp136
a(I0
g124
tp137
a(I1
g126
tp138
a(I2
g128
tp139
a(I3
g126
tp140
a(I4
g124
tp141
a(I0
g124
tp142
a(I1
g126
tp143
a(I2
g124
tp144
a(I3
g124
tp145
a(I4
g128
tp146
a(I0
g124
tp147
a(I1
g126
tp148
a(I2
S'South'
p149
tp150
a(I3
g124
tp151
a(I4
g124
tp152
a(I0
g124
tp153
a(I1
g126
tp154
a(I2
g126
tp155
a(I3
g124
tp156
a(I4
g128
tp157
a(I0
g124
tp158
a(I1
g126
tp159
a(I2
g149
tp160
a(I3
g124
tp161
a(I4
g126
tp162
a(I0
g124
tp163
a(I1
g124
tp164
a(I2
g124
tp165
a(I3
g128
tp166
a(I4
g149
tp167
a(I0
g124
tp168
a(I1
g124
tp169
a(I2
g124
tp170
a(I3
g126
tp171
a(I4
g124
tp172
a(I0
g124
tp173
a(I1
g124
tp174
a(I2
g124
tp175
a(I3
g128
tp176
a(I4
g128
tp177
a(I0
g124
tp178
a(I1
g128
tp179
a(I2
g124
tp180
a(I3
g124
tp181
a(I4
g124
tp182
a(I0
g124
tp183
a(I1
g128
tp184
a(I2
g126
tp185
a(I3
g149
tp186
a(I4
g124
tp187
a(I0
g124
tp188
a(I1
g124
tp189
a(I2
g126
tp190
a(I3
g126
tp191
a(I4
g124
tp192
a(I0
g128
tp193
a(I1
g124
tp194
a(I2
g126
tp195
a(I3
g149
tp196
a(I4
g124
tp197
a(I0
g128
tp198
a(I1
g124
tp199
a(I2
g126
tp200
a(I3
g126
tp201
a(I4
g124
tp202
a(I0
g126
tp203
a(I1
g124
tp204
a(I2
g126
tp205
a(I3
g126
tp206
a(I4
g149
tp207
a(I0
g124
tp208
a(I1
g124
tp209
a(I2
g126
tp210
a(I3
g126
tp211
a(I4
g149
tp212
a(I0
g126
tp213
a(I1
g124
tp214
a(I2
g126
tp215
a(I3
g124
tp216
a(I4
g149
tp217
a(I0
g124
tp218
a(I1
g149
tp219
a(I2
g124
tp220
a(I3
g124
tp221
a(I4
g149
tp222
a(I0
g126
tp223
a(I1
g149
tp224
a(I2
g124
tp225
a(I3
g124
tp226
a(I4
g149
tp227
a(I0
g124
tp228
a(I1
g124
tp229
a(I2
g124
tp230
a(I3
g128
tp231
a(I4
g149
tp232
a(I0
g126
tp233
a(I1
g124
tp234
a(I2
g128
tp235
a(I3
g124
tp236
a(I4
g124
tp237
a(I0
g124
tp238
a(I1
g124
tp239
a(I2
g124
tp240
a(I3
g149
tp241
a(I4
g124
tp242
a(I0
g126
tp243
a(I1
g124
tp244
a(I2
g128
tp245
a(I3
g124
tp246
a(I4
g124
tp247
a(I0
g124
tp248
a(I1
g124
tp249
a(I2
g126
tp250
a(I3
g124
tp251
a(I4
g124
tp252
a(I0
g126
tp253
a(I1
g124
tp254
a(I2
g126
tp255
a(I3
g124
tp256
a(I4
g124
tp257
a(I0
g124
tp258
a(I1
g124
tp259
a(I2
g126
tp260
a(I3
g126
tp261
a(I4
g124
tp262
a(I0
g126
tp263
a(I1
g126
tp264
a(I2
g126
tp265
a(I3
g126
tp266
a(I4
g124
tp267
a(I0
g124
tp268
a(I1
g126
tp269
a(I2
g126
tp270
a(I3
g126
tp271
a(I4
g149
tp272
a(I0
g126
tp273
a(I1
g126
tp274
a(I2
g126
tp275
a(I3
g128
tp276
a(I4
g149
tp277
a(I0
g124
tp278
a(I1
g126
tp279
a(I2
g149
tp280
a(I3
g128
tp281
a(I4
g149
tp282
a(I0
g126
tp283
a(I1
g126
tp284
a(I2
g149
tp285
a(I3
g126
tp286
a(I4
g126
tp287
a(I0
g124
tp288
a(I1
g126
tp289
a(I2
g149
tp290
a(I3
g149
tp291
a(I4
g126
tp292
a(I0
g126
tp293
a(I1
g126
tp294
a(I2
g149
tp295
a(I3
g149
tp296
a(I4
g149
tp297
a(I0
g124
tp298
a(I1
g149
tp299
a(I2
g149
tp300
a(I3
g124
tp301
a(I4
g149
tp302
a(I0
g126
tp303
a(I1
g149
tp304
a(I2
g149
tp305
a(I3
g128
tp306
a(I4
g149
tp307
a(I0
g124
tp308
a(I1
g149
tp309
a(I2
g124
tp310
a(I3
g128
tp311
a(I4
g124
tp312
a(I0
g126
tp313
as.