(dp1
S'layout'
p2
(ilayout
Layout
p3
(dp4
S'capsules'
p5
(lp6
(I1
I6
tp7
a(I26
I6
tp8
a(I1
I23
tp9
a(I26
I23
tp10
asS'numGhosts'
p11
I4
sS'food'
p12
(igame
Grid
p13
(dp14
S'CELLS_PER_INT'
p15
I30
sS'width'
p16
I28
sS'data'
p17
(lp18
(lp19
I00
aI00
aI00
aI00
aI00
aI00
aI00
aI00
aI00
aI00
aI00
aI00
aI00
aI00
aI00
aI00
aI00
aI00
aI00
aI00
aI00
aI00
aI00
aI00
aI00
aI00
aI00
aa(lp20
I00
aI01
aI01
aI01
aI00
aI00
aI00
aI01
aI01
aI01
aI00
aI00
aI00
aI00
aI00
aI00
aI00
aI00
aI01
aI01
aI01
aI01
aI01
aI00
aI01
aI01
aI00
aa(lp21
I00
aI01
aI00
aI01
aI00
aI00
aI01
aI00
aI00
aI01
aI00
aI00
aI00
aI00
aI00
aI00
aI00
aI00
aI01
aI00
aI00
aI01
aI00
aI00
aI00
aI01
aI00
aa(lp22
I00
aI01
aI00
aI01
aI01
aI01
aI01
aI00
aI00
aI01
aI00
aI00
aI00
aI00
aI00
aI00
aI00
aI00
aI01
aI00
aI00
aI01
aI00
aI00
aI00
aI01
aI00
aa(lp23
I00
aI01
aI00
aI01
aI00
aI00
aI00
aI00
aI00
aI01
aI00
aI00
aI00
aI00
aI00
aI00
aI00
aI00
aI01
aI00
aI00
aI01
aI00
aI00
aI00
aI01
aI00
aa(lp24
I00
aI01
aI00
aI01
aI00
aI00
aI00
aI00
aI00
aI01
aI00
aI00
aI00
aI00
aI00
aI00
aI00
aI00
aI01
aI00
aI00
aI01
aI00
aI00
aI00
aI01
aI00
aa(lp25
I00
aI01
aI00
aI01
aI01
aI01
aI01
aI01
aI01
aI01
aI01
aI01
aI01
aI01
aI01
aI01
aI01
aI01
aI01
aI01
aI01
aI01
aI01
aI01
aI01
aI01
aI00
aa(lp26
I00
aI01
aI00
aI00
aI00
aI00
aI01
aI00
aI00
aI01
aI00
aI00
aI00
aI00
aI00
aI00
aI00
aI00
aI00
aI00
aI00
aI01
aI00
aI00
aI00
aI01
aI00
aa(lp27
I00
aI01
aI00
aI00
aI00
aI00
aI01
aI00
aI00
aI01
aI00
aI00
aI00
aI00
aI00
aI00
aI00
aI00
aI00
aI00
aI00
aI01
aI00
aI00
aI00
aI01
aI00
aa(lp28
I00
aI01
aI00
aI01
aI01
aI01
aI01
aI00
aI00
aI01
aI00
aI00
aI00
aI00
aI00
aI00
aI00
aI00
aI01
aI01
aI01
aI01
aI00
aI00
aI00
aI01
aI00
aa(lp29
I00
aI01
aI00
aI01
aI00
aI00
aI01
aI00
aI00
aI01
aI00
aI00
aI00
aI00
aI00
aI00
aI00
aI00
aI01
aI00
aI00
aI01
aI00
aI00
aI00
aI01
aI00
aa(lp30
I00
aI01
aI00
aI01
aI00
aI00
aI01
aI00
aI00
aI01
aI00
aI00
aI00
aI00
aI00
aI00
aI00
aI00
aI01
aI00
aI00
aI01
aI00
aI00
aI00
aI01
aI00
aa(lp31
I00
aI01
aI01
aI01
aI00
aI00
aI01
aI01
aI01
aI01
aI00
aI00
aI00
aI00
aI00
aI00
aI00
aI00
aI01
aI00
aI00
aI01
aI01
aI01
aI01
aI01
aI00
aa(lp32
I00
aI01
aI00
aI00
aI00
aI00
aI00
aI00
aI00
aI00
aI00
aI00
aI00
aI00
aI00
aI00
aI00
aI00
aI00
aI00
aI00
aI01
aI00
aI00
aI00
aI00
aI00
aa(lp33
I00
aI00
aI00
aI00
aI00
aI00
aI00
aI00
aI00
aI00
aI00
aI00
aI00
aI00
aI00
aI00
aI00
aI00
aI00
aI00
aI00
aI01
aI00
aI00
aI00
aI00
aI00
aa(lp34
I00
aI01
aI01
aI01
aI00
aI00
aI01
aI01
aI01
aI01
aI00
aI00
aI00
aI00
aI00
aI00
aI00
aI00
aI01
aI00
aI00
aI01
aI01
aI01
aI01
aI01
aI00
aa(lp35
I00
aI01
aI00
aI01
aI00
aI00
aI01
aI00
aI00
aI01
aI00
aI00
aI00
aI00
aI00
aI00
aI00
aI00
aI01
aI00
aI00
aI01
aI00
aI00
aI00
aI01
aI00
aa(lp36
I00
aI01
aI00
aI01
aI00
aI00
aI01
aI00
aI00
aI01
aI00
aI00
aI00
aI00
aI00
aI00
aI00
aI00
aI01
aI00
aI00
aI01
aI00
aI00
aI00
aI01
aI00
aa(lp37
I00
aI01
aI00
aI01
aI01
aI01
aI01
aI00
aI00
aI01
aI00
aI00
aI00
aI00
aI00
aI00
aI00
aI00
aI01
aI01
aI01
aI01
aI00
aI00
aI00
aI01
aI00
aa(lp38
I00
aI01
aI00
aI00
aI00
aI00
aI01
aI00
aI00
aI01
aI00
aI00
aI00
aI00
aI00
aI00
aI00
aI00
aI00
aI00
aI00
aI01
aI00
aI00
aI00
aI01
aI00
aa(lp39
I00
aI01
aI00
aI00
aI00
aI00
aI01
aI00
aI00
aI01
aI00
aI00
aI00
aI00
aI00
aI00
aI00
aI00
aI00
aI00
aI00
aI01
aI00
aI00
aI00
aI01
aI00
aa(lp40
I00
aI01
aI00
aI01
aI01
aI01
aI01
aI01
aI01
aI01
aI01
aI01
aI01
aI01
aI01
aI01
aI01
aI01
aI01
aI01
aI01
aI01
aI01
aI01
aI01
aI01
aI00
aa(lp41
I00
aI01
aI00
aI01
aI00
aI00
aI00
aI00
aI00
aI01
aI00
aI00
aI00
aI00
aI00
aI00
aI00
aI00
aI01
aI00
aI00
aI01
aI00
aI00
aI00
aI01
aI00
aa(lp42
I00
aI01
aI00
aI01
aI00
aI00
aI00
aI00
aI00
aI01
aI00
aI00
aI00
aI00
aI00
aI00
aI00
aI00
aI01
aI00
aI00
aI01
aI00
aI00
aI00
aI01
aI00
aa(lp43
I00
aI01
aI00
aI01
aI01
aI01
aI01
aI00
aI00
aI01
aI00
aI00
aI00
aI00
aI00
aI00
aI00
aI00
aI01
aI00
aI00
aI01
aI00
aI00
aI00
aI01
aI00
aa(lp44
I00
aI01
aI00
aI01
aI00
aI00
aI01
aI00
aI00
aI01
aI00
aI00
aI00
aI00
aI00
aI00
aI00
aI00
aI01
aI00
aI00
aI01
aI00
aI00
aI00
aI01
aI00
aa(lp45
I00
aI01
aI01
aI01
aI00
aI00
aI00
aI01
aI01
aI01
aI00
aI00
aI00
aI00
aI00
aI00
aI00
aI00
aI01
aI01
aI01
aI01
aI01
aI00
aI01
aI01
aI00
aa(lp46
I00
aI00
aI00
aI00
aI00
aI00
aI00
aI00
aI00
aI00
aI00
aI00
aI00
aI00
aI00
aI00
aI00
aI00
aI00
aI00
aI00
aI00
aI00
aI00
aI00
aI00
aI00
aasS'height'
p47
I27
sbsS'agentPositions'
p48
(lp49
(I01
(I14
I1
tp50
tp51
a(I00
(I10
I13
tp52
tp53
a(I00
(I13
I13
tp54
tp55
a(I00
(I14
I13
tp56
tp57
a(I00
(I17
I13
tp58
tp59
asg47
I27
sg16
I28
sS'walls'
p60
(igame
Grid
p61
(dp62
g15
I30
sg16
I28
sg17
(lp63
(lp64
I01
aI01
aI01
aI01
aI01
aI01
aI01
aI01
aI01
aI01
aI01
aI01
aI01
aI01
aI01
aI01
aI01
aI01
aI01
aI01
aI01
aI01
aI01
aI01
aI01
aI01
aI01
aa(lp65
I01
aI00
aI00
aI00
aI01
aI01
aI00
aI00
aI00
aI00
aI01
aI01
aI01
aI00
aI01
aI01
aI01
aI01
aI00
aI00
aI00
aI00
aI00
aI00
aI00
aI00
aI01
aa(lp66
I01
aI00
aI01
aI00
aI01
aI01
aI00
aI01
aI01
aI00
aI01
aI01
aI01
aI00
aI01
aI01
aI01
aI01
aI00
aI01
aI01
aI00
aI01
aI01
aI01
aI00
aI01
aa(lp67
I01
aI00
aI01
aI00
aI00
aI00
aI00
aI01
aI01
aI00
aI01
aI01
aI01
aI00
aI01
aI01
aI01
aI01
aI00
aI01
aI01
aI00
aI01
aI01
aI01
aI00
aI01
aa(lp68
I01
aI00
aI01
aI00
aI01
aI01
aI01
aI01
aI01
aI00
aI01
aI01
aI01
aI00
aI01
aI01
aI01
aI01
aI00
aI01
aI01
aI00
aI01
aI01
aI01
aI00
aI01
aa(lp69
I01
aI00
aI01
aI00
aI01
aI01
aI01
aI01
aI01
aI00
aI01
aI01
aI01
aI00
aI01
aI01
aI01
aI01
aI00
aI01
aI01
aI00
aI01
aI01
aI01
aI00
aI01
aa(lp70
I01
aI00
aI01
aI00
aI00
aI00
aI00
aI00
aI00
aI00
aI00
aI00
aI00
aI00
aI00
aI00
aI00
aI00
aI00
aI00
aI00
aI00
aI00
aI00
aI00
aI00
aI01
aa(lp71
I01
aI00
aI01
aI01
aI01
aI01
aI00
aI01
aI01
aI00
aI01
aI01
aI01
aI00
aI01
aI01
aI01
aI01
aI01
aI01
aI01
aI00
aI01
aI01
aI01
aI00
aI01
aa(lp72
I01
aI00
aI01
aI01
aI01
aI01
aI00
aI01
aI01
aI00
aI00
aI00
aI00
aI00
aI00
aI00
aI01
aI01
aI01
aI01
aI01
aI00
aI01
aI01
aI01
aI00
aI01
aa(lp73
I01
aI00
aI01
aI00
aI00
aI00
aI00
aI01
aI01
aI00
aI01
aI00
aI01
aI01
aI01
aI00
aI01
aI01
aI00
aI00
aI00
aI00
aI01
aI01
aI01
aI00
aI01
aa(lp74
I01
aI00
aI01
aI00
aI01
aI01
aI00
aI01
aI01
aI00
aI01
aI00
aI01
aI00
aI01
aI00
aI01
aI01
aI00
aI01
aI01
aI00
aI01
aI01
aI01
aI00
aI01
aa(lp75
I01
aI00
aI01
aI00
aI01
aI01
aI00
aI01
aI01
aI00
aI01
aI00
aI01
aI00
aI01
aI00
aI01
aI01
aI00
aI01
aI01
aI00
aI01
aI01
aI01
aI00
aI01
aa(lp76
I01
aI00
aI00
aI00
aI01
aI01
aI00
aI00
aI00
aI00
aI01
aI00
aI01
aI00
aI01
aI00
aI00
aI00
aI00
aI01
aI01
aI00
aI00
aI00
aI00
aI00
aI01
aa(lp77
I01
aI00
aI01
aI01
aI01
aI01
aI00
aI01
aI01
aI01
aI01
aI00
aI01
aI00
aI00
aI00
aI01
aI01
aI01
aI01
aI01
aI00
aI01
aI01
aI01
aI01
aI01
aa(lp78
I01
aI00
aI01
aI01
aI01
aI01
aI00
aI01
aI01
aI01
aI01
aI00
aI01
aI00
aI00
aI00
aI01
aI01
aI01
aI01
aI01
aI00
aI01
aI01
aI01
aI01
aI01
aa(lp79
I01
aI00
aI00
aI00
aI01
aI01
aI00
aI00
aI00
aI00
aI01
aI00
aI01
aI00
aI01
aI00
aI00
aI00
aI00
aI01
aI01
aI00
aI00
aI00
aI00
aI00
aI01
aa(lp80
I01
aI00
aI01
aI00
aI01
aI01
aI00
aI01
aI01
aI00
aI01
aI00
aI01
aI00
aI01
aI00
aI01
aI01
aI00
aI01
aI01
aI00
aI01
aI01
aI01
aI00
aI01
aa(lp81
I01
aI00
aI01
aI00
aI01
aI01
aI00
aI01
aI01
aI00
aI01
aI00
aI01
aI00
aI01
aI00
aI01
aI01
aI00
aI01
aI01
aI00
aI01
aI01
aI01
aI00
aI01
aa(lp82
I01
aI00
aI01
aI00
aI00
aI00
aI00
aI01
aI01
aI00
aI01
aI00
aI01
aI01
aI01
aI00
aI01
aI01
aI00
aI00
aI00
aI00
aI01
aI01
aI01
aI00
aI01
aa(lp83
I01
aI00
aI01
aI01
aI01
aI01
aI00
aI01
aI01
aI00
aI00
aI00
aI00
aI00
aI00
aI00
aI01
aI01
aI01
aI01
aI01
aI00
aI01
aI01
aI01
aI00
aI01
aa(lp84
I01
aI00
aI01
aI01
aI01
aI01
aI00
aI01
aI01
aI00
aI01
aI01
aI01
aI00
aI01
aI01
aI01
aI01
aI01
aI01
aI01
aI00
aI01
aI01
aI01
aI00
aI01
aa(lp85
I01
aI00
aI01
aI00
aI00
aI00
aI00
aI00
aI00
aI00
aI00
aI00
aI00
aI00
aI00
aI00
aI00
aI00
aI00
aI00
aI00
aI00
aI00
aI00
aI00
aI00
aI01
aa(lp86
I01
aI00
aI01
aI00
aI01
aI01
aI01
aI01
aI01
aI00
aI01
aI01
aI01
aI00
aI01
aI01
aI01
aI01
aI00
aI01
aI01
aI00
aI01
aI01
aI01
aI00
aI01
aa(lp87
I01
aI00
aI01
aI00
aI01
aI01
aI01
aI01
aI01
aI00
aI01
aI01
aI01
aI00
aI01
aI01
aI01
aI01
aI00
aI01
aI01
aI00
aI01
aI01
aI01
aI00
aI01
aa(lp88
I01
aI00
aI01
aI00
aI00
aI00
aI00
aI01
aI01
aI00
aI01
aI01
aI01
aI00
aI01
aI01
aI01
aI01
aI00
aI01
aI01
aI00
aI01
aI01
aI01
aI00
aI01
aa(lp89
I01
aI00
aI01
aI00
aI01
aI01
aI00
aI01
aI01
aI00
aI01
aI01
aI01
aI00
aI01
aI01
aI01
aI01
aI00
aI01
aI01
aI00
aI01
aI01
aI01
aI00
aI01
aa(lp90
I01
aI00
aI00
aI00
aI01
aI01
aI00
aI00
aI00
aI00
aI01
aI01
aI01
aI00
aI01
aI01
aI01
aI01
aI00
aI00
aI00
aI00
aI00
aI00
aI00
aI00
aI01
aa(lp91
I01
aI01
aI01
aI01
aI01
aI01
aI01
aI01
aI01
aI01
aI01
aI01
aI01
aI01
aI01
aI01
aI01
aI01
aI01
aI01
aI01
aI01
aI01
aI01
aI01
aI01
aI01
aasg47
I27
sbsS'totalFood'
p92
I229
sS'layoutText'
p93
(lp94
S'%%%%%%%%%%%%%%%%%%%%%%%%%%%%'
p95
aS'%............%%............%'
p96
aS'%.%%%%.%%%%%.%%.%%%%%.%%%%.%'
p97
aS'%o%%%%.%%%%%.%%.%%%%%.%%%%o%'
p98
aS'%.%%%%.%%%%%.%%.%%%%%.%%%%.%'
p99
aS'%..........................%'
p100
aS'%.%%%%.%%.%%%%%%%%.%%.%%%%.%'
p101
aS'%.%%%%.%%.%%%%%%%%.%%.%%%%.%'
p102
aS'%......%%....%%....%%......%'
p103
aS'%%%%%%.%%%%% %% %%%%%.%%%%%%'
p104
aS'%%%%%%.%%%%% %% %%%%%.%%%%%%'
p105
aS'%%%%%%.%            %.%%%%%%'
p106
aS'%%%%%%.% %%%%  %%%% %.%%%%%%'
p107
aS'%     .  %G  GG  G%  .     %'
p108
aS'%%%%%%.% %%%%%%%%%% %.%%%%%%'
p109
aS'%%%%%%.%            %.%%%%%%'
p110
aS'%%%%%%.% %%%%%%%%%% %.%%%%%%'
p111
aS'%............%%............%'
p112
aS'%.%%%%.%%%%%.%%.%%%%%.%%%%.%'
p113
aS'%.%%%%.%%%%%.%%.%%%%%.%%%%.%'
p114
aS'%o..%%.......  .......%%..o%'
p115
aS'%%%.%%.%%.%%%%%%%%.%%.%%.%%%'
p116
aS'%%%.%%.%%.%%%%%%%%.%%.%%.%%%'
p117
aS'%......%%....%%....%%......%'
p118
aS'%.%%%%%%%%%%.%%.%%%%%%%%%%.%'
p119
aS'%.............P............%'
p120
aS'%%%%%%%%%%%%%%%%%%%%%%%%%%%%'
p121
asbsS'actions'
p122
(lp123
(I0
S'West'
p124
tp125
a(I1
S'East'
p126
tp127
a(I2
S'North'
p128
tp129
a(I3
g124
tp130
a(I4
g124
tp131
a(I0
g124
tp132
a(I1
g126
tp133
a(I2
g126
tp134
a(I3
g128
tp135
a(I4
g124
tp136
a(I0
g124
tp137
a(I1
g126
tp138
a(I2
S'South'
p139
tp140
a(I3
g126
tp141
a(I4
g124
tp142
a(I0
g124
tp143
a(I1
g126
tp144
a(I2
g124
tp145
a(I3
g128
tp146
a(I4
g128
tp147
a(I0
g124
tp148
a(I1
g126
tp149
a(I2
g128
tp150
a(I3
g124
tp151
a(I4
g128
tp152
a(I0
g124
tp153
a(I1
g126
tp154
a(I2
g126
tp155
a(I3
g139
tp156
a(I4
g126
tp157
a(I0
g124
tp158
a(I1
g126
tp159
a(I2
g128
tp160
a(I3
g126
tp161
a(I4
g126
tp162
a(I0
g124
tp163
a(I1
g124
tp164
a(I2
g126
tp165
a(I3
g139
tp166
a(I4
g126
tp167
a(I0
g124
tp168
a(I1
g124
tp169
a(I2
g126
tp170
a(I3
g126
tp171
a(I4
g126
tp172
a(I0
g124
tp173
a(I1
g124
tp174
a(I2
g126
tp175
a(I3
g126
tp176
a(I4
g126
tp177
a(I0
g124
tp178
a(I1
g124
tp179
a(I2
g126
tp180
a(I3
g126
tp181
a(I4
g139
tp182
a(I0
g124
tp183
a(I1
g128
tp184
a(I2
g126
tp185
a(I3
g124
tp186
a(I4
g139
tp187
a(I0
g124
tp188
a(I1
g126
tp189
a(I2
g139
tp190
a(I3
g124
tp191
a(I4
g139
tp192
a(I0
g128
tp193
a(I1
g139
tp194
a(I2
g139
tp195
a(I3
g124
tp196
a(I4
g139
tp197
a(I0
g128
tp198
a(I1
g124
tp199
a(I2
g126
tp200
a(I3
g128
tp201
a(I4
g124
tp202
a(I0
g126
tp203
a(I1
g128
tp204
a(I2
g126
tp205
a(I3
g128
tp206
a(I4
g124
tp207
a(I0
g124
tp208
a(I1
g126
tp209
a(I2
g126
tp210
a(I3
g124
tp211
a(I4
g124
tp212
a(I0
g139
tp213
a(I1
g128
tp214
a(I2
g126
tp215
a(I3
g139
tp216
a(I4
g124
tp217
a(I0
g128
tp218
a(I1
g126
tp219
a(I2
g126
tp220
a(I3
g126
tp221
a(I4
g124
tp222
a(I0
g126
tp223
a(I1
g126
tp224
a(I2
g126
tp225
a(I3
g128
tp226
a(I4
g124
tp227
a(I0
g124
tp228
a(I1
g126
tp229
a(I2
g126
tp230
a(I3
g126
tp231
a(I4
g124
tp232
a(I0
g126
tp233
a(I1
g126
tp234
a(I2
g124
tp235
a(I3
g126
tp236
a(I4
g124
tp237
a(I0
g124
tp238
a(I1
g126
tp239
a(I2
g124
tp240
a(I3
g126
tp241
a(I4
g124
tp242
a(I0
g126
tp243
a(I1
g139
tp244
a(I2
g124
tp245
a(I3
g126
tp246
a(I4
g124
tp247
a(I0
g124
tp248
a(I1
g139
tp249
a(I2
g124
tp250
a(I3
g126
tp251
a(I4
g124
tp252
a(I0
g126
tp253
a(I1
g139
tp254
a(I2
g124
tp255
a(I3
g139
tp256
a(I4
g128
tp257
a(I0
g124
tp258
a(I1
g139
tp259
a(I2
g139
tp260
a(I3
g139
tp261
a(I4
g128
tp262
a(I0
g126
tp263
a(I1
g124
tp264
a(I2
g139
tp265
a(I3
g126
tp266
a(I4
g128
tp267
a(I0
g124
tp268
a(I1
g124
tp269
a(I2
g139
tp270
a(I3
g126
tp271
a(I4
g128
tp272
a(I0
g126
tp273
a(I1
g124
tp274
a(I2
g139
tp275
a(I3
g139
tp276
a(I4
g126
tp277
a(I0
g124
tp278
a(I1
g124
tp279
a(I2
g126
tp280
a(I3
g139
tp281
a(I4
g126
tp282
a(I0
g126
tp283
a(I1
g124
tp284
a(I2
g126
tp285
a(I3
g139
tp286
a(I4
g126
tp287
a(I0
g124
tp288
a(I1
g124
tp289
a(I2
g126
tp290
a(I3
g139
tp291
a(I4
g126
tp292
a(I0
g126
tp293
a(I1
g124
tp294
a(I2
g126
tp295
a(I3
g124
tp296
a(I4
g126
tp297
a(I0
g124
tp298
a(I1
g124
tp299
a(I2
g126
tp300
a(I3
g124
tp301
a(I4
g126
tp302
a(I0
g126
tp303
a(I1
g124
tp304
a(I2
g139
tp305
a(I3
g128
tp306
a(I4
g126
tp307
a(I0
g124
tp308
a(I1
g124
tp309
a(I2
g139
tp310
a(I3
g128
tp311
a(I4
g126
tp312
a(I0
g126
tp313
a(I1
g124
tp314
a(I2
g139
tp315
a(I3
g128
tp316
a(I4
g126
tp317
a(I0
g124
tp318
a(I1
g128
tp319
a(I2
g124
tp320
a(I3
g128
tp321
a(I4
g126
tp322
a(I0
g126
tp323
a(I1
g128
tp324
a(I2
g124
tp325
a(I3
g126
tp326
a(I4
g126
tp327
a(I0
g124
tp328
a(I1
g128
tp329
a(I2
g139
tp330
a(I3
g126
tp331
a(I4
g139
tp332
a(I0
S'Stop'
p333
tp334
a(I1
g128
tp335
a(I2
g139
tp336
a(I3
g126
tp337
a(I4
g139
tp338
a(I0
g126
tp339
a(I1
g126
tp340
a(I2
g139
tp341
a(I3
g126
tp342
a(I4
g139
tp343
a(I0
g124
tp344
a(I1
g126
tp345
a(I2
g126
tp346
a(I3
g126
tp347
a(I4
g139
tp348
a(I0
g126
tp349
a(I1
g126
tp350
a(I2
g126
tp351
a(I3
g126
tp352
a(I4
g139
tp353
a(I0
g124
tp354
a(I1
g126
tp355
a(I2
g139
tp356
a(I3
g126
tp357
a(I4
g139
tp358
a(I0
g126
tp359
a(I1
g128
tp360
a(I2
g139
tp361
a(I3
g124
tp362
a(I4
g126
tp363
a(I0
g124
tp364
a(I1
g128
tp365
a(I2
g124
tp366
a(I3
g124
tp367
a(I4
g126
tp368
a(I0
g126
tp369
a(I1
g128
tp370
a(I2
g124
tp371
a(I3
g124
tp372
a(I4
g126
tp373
a(I0
g124
tp374
a(I1
g124
tp375
a(I2
g124
tp376
a(I3
g124
tp377
a(I4
g126
tp378
a(I0
g126
tp379
a(I1
g124
tp380
a(I2
g124
tp381
a(I3
g124
tp382
a(I4
g126
tp383
a(I0
g124
tp384
a(I1
g124
tp385
a(I2
g124
tp386
a(I3
g128
tp387
a(I4
g126
tp388
a(I0
g126
tp389
a(I1
g128
tp390
a(I2
g124
tp391
a(I3
g128
tp392
a(I4
g126
tp393
a(I0
g124
tp394
a(I1
g128
tp395
a(I2
g124
tp396
a(I3
g128
tp397
a(I4
g139
tp398
a(I0
g139
tp399
a(I1
g128
tp400
a(I2
g124
tp401
a(I3
g128
tp402
a(I4
g139
tp403
a(I0
g128
tp404
a(I1
g126
tp405
a(I2
g124
tp406
a(I3
g128
tp407
a(I4
g139
tp408
a(I0
g333
tp409
a(I1
g126
tp410
a(I2
g124
tp411
a(I3
g128
tp412
a(I4
g124
tp413
a(I0
g126
tp414
a(I1
g126
tp415
a(I2
g124
tp416
a(I3
g128
tp417
a(I4
g124
tp418
a(I0
g124
tp419
a(I1
g128
tp420
a(I2
g128
tp421
a(I3
g128
tp422
a(I4
g139
tp423
a(I0
g126
tp424
a(I1
g128
tp425
a(I2
g128
tp426
a(I3
g124
tp427
a(I4
g139
tp428
a(I0
g124
tp429
a(I1
g128
tp430
a(I2
g126
tp431
a(I3
g124
tp432
a(I4
g139
tp433
a(I0
g126
tp434
a(I1
g128
tp435
a(I2
g126
tp436
a(I3
g124
tp437
a(I4
g126
tp438
a(I0
g124
tp439
a(I1
g124
tp440
a(I2
g126
tp441
a(I3
g124
tp442
a(I4
g126
tp443
a(I0
g126
tp444
a(I1
g124
tp445
a(I2
g128
tp446
a(I3
g124
tp447
a(I4
g139
tp448
a(I0
g124
tp449
a(I1
g124
tp450
a(I2
g128
tp451
a(I3
g124
tp452
a(I4
g139
tp453
a(I0
g126
tp454
a(I1
g124
tp455
a(I2
g128
tp456
a(I3
g124
tp457
a(I4
g124
tp458
a(I0
g124
tp459
a(I1
g124
tp460
a(I2
g124
tp461
a(I3
g124
tp462
a(I4
g124
tp463
a(I0
g126
tp464
a(I1
g124
tp465
a(I2
g124
tp466
a(I3
g124
tp467
a(I4
g124
tp468
a(I0
g124
tp469
a(I1
g139
tp470
a(I2
g124
tp471
a(I3
g124
tp472
a(I4
g124
tp473
a(I0
g126
tp474
a(I1
g139
tp475
a(I2
g124
tp476
a(I3
g124
tp477
a(I4
g124
tp478
a(I0
g124
tp479
a(I1
g139
tp480
a(I2
g124
tp481
a(I3
g124
tp482
a(I4
g124
tp483
a(I0
g126
tp484
a(I1
g139
tp485
a(I2
g124
tp486
a(I3
g124
tp487
a(I4
g124
tp488
a(I0
g124
tp489
a(I1
g139
tp490
a(I2
g124
tp491
a(I3
g124
tp492
a(I4
g124
tp493
a(I0
g126
tp494
a(I1
g139
tp495
a(I2
g124
tp496
a(I3
g124
tp497
a(I4
g124
tp498
a(I0
g124
tp499
a(I1
g139
tp500
a(I2
g124
tp501
a(I3
g124
tp502
a(I4
g124
tp503
a(I0
g126
tp504
a(I1
g124
tp505
a(I2
g139
tp506
a(I3
g124
tp507
a(I4
g124
tp508
a(I0
g124
tp509
a(I1
g124
tp510
a(I2
g139
tp511
a(I3
g124
tp512
a(I4
g128
tp513
a(I0
g126
tp514
a(I1
g124
tp515
a(I2
g139
tp516
a(I3
g124
tp517
a(I4
g128
tp518
a(I0
g124
tp519
a(I1
g124
tp520
a(I2
g126
tp521
a(I3
g124
tp522
a(I4
g126
tp523
a(I0
g126
tp524
a(I1
g124
tp525
a(I2
g126
tp526
a(I3
g128
tp527
a(I4
g126
tp528
a(I0
g124
tp529
a(I1
g128
tp530
a(I2
g126
tp531
a(I3
g128
tp532
a(I4
g126
tp533
a(I0
g126
tp534
a(I1
g128
tp535
a(I2
g139
tp536
a(I3
g128
tp537
a(I4
g128
tp538
a(I0
g124
tp539
a(I1
g128
tp540
a(I2
g139
tp541
a(I3
g128
tp542
a(I4
g128
tp543
a(I0
g126
tp544
a(I1
g126
tp545
a(I2
g124
tp546
a(I3
g126
tp547
a(I4
g128
tp548
a(I0
g124
tp549
a(I1
g126
tp550
a(I2
g124
tp551
a(I3
g126
tp552
a(I4
g126
tp553
a(I0
g126
tp554
a(I1
g126
tp555
a(I2
g124
tp556
a(I3
g126
tp557
a(I4
g126
tp558
a(I0
g124
tp559
a(I1
g126
tp560
a(I2
g124
tp561
a(I3
g126
tp562
a(I4
g126
tp563
a(I0
g126
tp564
a(I1
g126
tp565
a(I2
g124
tp566
a(I3
g126
tp567
a(I4
g139
tp568
a(I0
g124
tp569
a(I1
g139
tp570
a(I2
g124
tp571
a(I3
g139
tp572
a(I4
g139
tp573
a(I0
g126
tp574
a(I1
g139
tp575
a(I2
g124
tp576
a(I3
g139
tp577
a(I4
g139
tp578
a(I0
g124
tp579
a(I1
g139
tp580
a(I2
g124
tp581
a(I3
g139
tp582
a(I4
g126
tp583
a(I0
g126
tp584
a(I1
g139
tp585
a(I2
g124
tp586
a(I3
g139
tp587
a(I4
g126
tp588
a(I0
g124
tp589
a(I1
g139
tp590
a(I2
g124
tp591
a(I3
g126
tp592
a(I4
g126
tp593
a(I0
g126
tp594
a(I1
g139
tp595
a(I2
g124
tp596
a(I3
g126
tp597
a(I4
g126
tp598
a(I0
g124
tp599
a(I1
g139
tp600
a(I2
g128
tp601
a(I3
g126
tp602
a(I4
g126
tp603
a(I0
g126
tp604
a(I1
g139
tp605
a(I2
g128
tp606
a(I3
g139
tp607
a(I4
g139
tp608
a(I0
g124
tp609
as.