(dp1
S'layout'
p2
(ilayout
Layout
p3
(dp4
S'capsules'
p5
(lp6
(I1
I6
tp7
a(I26
I6
tp8
a(I1
I23
tp9
a(I26
I23
tp10
asS'numGhosts'
p11
I4
sS'food'
p12
(igame
Grid
p13
(dp14
S'CELLS_PER_INT'
p15
I30
sS'width'
p16
I28
sS'data'
p17
(lp18
(lp19
I00
aI00
aI00
aI00
aI00
aI00
aI00
aI00
aI00
aI00
aI00
aI00
aI00
aI00
aI00
aI00
aI00
aI00
aI00
aI00
aI00
aI00
aI00
aI00
aI00
aI00
aI00
aa(lp20
I00
aI01
aI01
aI01
aI00
aI00
aI00
aI01
aI01
aI01
aI00
aI00
aI00
aI00
aI00
aI00
aI00
aI00
aI01
aI01
aI01
aI01
aI01
aI00
aI01
aI01
aI00
aa(lp21
I00
aI01
aI00
aI01
aI00
aI00
aI01
aI00
aI00
aI01
aI00
aI00
aI00
aI00
aI00
aI00
aI00
aI00
aI01
aI00
aI00
aI01
aI00
aI00
aI00
aI01
aI00
aa(lp22
I00
aI01
aI00
aI01
aI01
aI01
aI01
aI00
aI00
aI01
aI00
aI00
aI00
aI00
aI00
aI00
aI00
aI00
aI01
aI00
aI00
aI01
aI00
aI00
aI00
aI01
aI00
aa(lp23
I00
aI01
aI00
aI01
aI00
aI00
aI00
aI00
aI00
aI01
aI00
aI00
aI00
aI00
aI00
aI00
aI00
aI00
aI01
aI00
aI00
aI01
aI00
aI00
aI00
aI01
aI00
aa(lp24
I00
aI01
aI00
aI01
aI00
aI00
aI00
aI00
aI00
aI01
aI00
aI00
aI00
aI00
aI00
aI00
aI00
aI00
aI01
aI00
aI00
aI01
aI00
aI00
aI00
aI01
aI00
aa(lp25
I00
aI01
aI00
aI01
aI01
aI01
aI01
aI01
aI01
aI01
aI01
aI01
aI01
aI01
aI01
aI01
aI01
aI01
aI01
aI01
aI01
aI01
aI01
aI01
aI01
aI01
aI00
aa(lp26
I00
aI01
aI00
aI00
aI00
aI00
aI01
aI00
aI00
aI01
aI00
aI00
aI00
aI00
aI00
aI00
aI00
aI00
aI00
aI00
aI00
aI01
aI00
aI00
aI00
aI01
aI00
aa(lp27
I00
aI01
aI00
aI00
aI00
aI00
aI01
aI00
aI00
aI01
aI00
aI00
aI00
aI00
aI00
aI00
aI00
aI00
aI00
aI00
aI00
aI01
aI00
aI00
aI00
aI01
aI00
aa(lp28
I00
aI01
aI00
aI01
aI01
aI01
aI01
aI00
aI00
aI01
aI00
aI00
aI00
aI00
aI00
aI00
aI00
aI00
aI01
aI01
aI01
aI01
aI00
aI00
aI00
aI01
aI00
aa(lp29
I00
aI01
aI00
aI01
aI00
aI00
aI01
aI00
aI00
aI01
aI00
aI00
aI00
aI00
aI00
aI00
aI00
aI00
aI01
aI00
aI00
aI01
aI00
aI00
aI00
aI01
aI00
aa(lp30
I00
aI01
aI00
aI01
aI00
aI00
aI01
aI00
aI00
aI01
aI00
aI00
aI00
aI00
aI00
aI00
aI00
aI00
aI01
aI00
aI00
aI01
aI00
aI00
aI00
aI01
aI00
aa(lp31
I00
aI01
aI01
aI01
aI00
aI00
aI01
aI01
aI01
aI01
aI00
aI00
aI00
aI00
aI00
aI00
aI00
aI00
aI01
aI00
aI00
aI01
aI01
aI01
aI01
aI01
aI00
aa(lp32
I00
aI01
aI00
aI00
aI00
aI00
aI00
aI00
aI00
aI00
aI00
aI00
aI00
aI00
aI00
aI00
aI00
aI00
aI00
aI00
aI00
aI01
aI00
aI00
aI00
aI00
aI00
aa(lp33
I00
aI00
aI00
aI00
aI00
aI00
aI00
aI00
aI00
aI00
aI00
aI00
aI00
aI00
aI00
aI00
aI00
aI00
aI00
aI00
aI00
aI01
aI00
aI00
aI00
aI00
aI00
aa(lp34
I00
aI01
aI01
aI01
aI00
aI00
aI01
aI01
aI01
aI01
aI00
aI00
aI00
aI00
aI00
aI00
aI00
aI00
aI01
aI00
aI00
aI01
aI01
aI01
aI01
aI01
aI00
aa(lp35
I00
aI01
aI00
aI01
aI00
aI00
aI01
aI00
aI00
aI01
aI00
aI00
aI00
aI00
aI00
aI00
aI00
aI00
aI01
aI00
aI00
aI01
aI00
aI00
aI00
aI01
aI00
aa(lp36
I00
aI01
aI00
aI01
aI00
aI00
aI01
aI00
aI00
aI01
aI00
aI00
aI00
aI00
aI00
aI00
aI00
aI00
aI01
aI00
aI00
aI01
aI00
aI00
aI00
aI01
aI00
aa(lp37
I00
aI01
aI00
aI01
aI01
aI01
aI01
aI00
aI00
aI01
aI00
aI00
aI00
aI00
aI00
aI00
aI00
aI00
aI01
aI01
aI01
aI01
aI00
aI00
aI00
aI01
aI00
aa(lp38
I00
aI01
aI00
aI00
aI00
aI00
aI01
aI00
aI00
aI01
aI00
aI00
aI00
aI00
aI00
aI00
aI00
aI00
aI00
aI00
aI00
aI01
aI00
aI00
aI00
aI01
aI00
aa(lp39
I00
aI01
aI00
aI00
aI00
aI00
aI01
aI00
aI00
aI01
aI00
aI00
aI00
aI00
aI00
aI00
aI00
aI00
aI00
aI00
aI00
aI01
aI00
aI00
aI00
aI01
aI00
aa(lp40
I00
aI01
aI00
aI01
aI01
aI01
aI01
aI01
aI01
aI01
aI01
aI01
aI01
aI01
aI01
aI01
aI01
aI01
aI01
aI01
aI01
aI01
aI01
aI01
aI01
aI01
aI00
aa(lp41
I00
aI01
aI00
aI01
aI00
aI00
aI00
aI00
aI00
aI01
aI00
aI00
aI00
aI00
aI00
aI00
aI00
aI00
aI01
aI00
aI00
aI01
aI00
aI00
aI00
aI01
aI00
aa(lp42
I00
aI01
aI00
aI01
aI00
aI00
aI00
aI00
aI00
aI01
aI00
aI00
aI00
aI00
aI00
aI00
aI00
aI00
aI01
aI00
aI00
aI01
aI00
aI00
aI00
aI01
aI00
aa(lp43
I00
aI01
aI00
aI01
aI01
aI01
aI01
aI00
aI00
aI01
aI00
aI00
aI00
aI00
aI00
aI00
aI00
aI00
aI01
aI00
aI00
aI01
aI00
aI00
aI00
aI01
aI00
aa(lp44
I00
aI01
aI00
aI01
aI00
aI00
aI01
aI00
aI00
aI01
aI00
aI00
aI00
aI00
aI00
aI00
aI00
aI00
aI01
aI00
aI00
aI01
aI00
aI00
aI00
aI01
aI00
aa(lp45
I00
aI01
aI01
aI01
aI00
aI00
aI00
aI01
aI01
aI01
aI00
aI00
aI00
aI00
aI00
aI00
aI00
aI00
aI01
aI01
aI01
aI01
aI01
aI00
aI01
aI01
aI00
aa(lp46
I00
aI00
aI00
aI00
aI00
aI00
aI00
aI00
aI00
aI00
aI00
aI00
aI00
aI00
aI00
aI00
aI00
aI00
aI00
aI00
aI00
aI00
aI00
aI00
aI00
aI00
aI00
aasS'height'
p47
I27
sbsS'agentPositions'
p48
(lp49
(I01
(I14
I1
tp50
tp51
a(I00
(I10
I13
tp52
tp53
a(I00
(I13
I13
tp54
tp55
a(I00
(I14
I13
tp56
tp57
a(I00
(I17
I13
tp58
tp59
asg47
I27
sg16
I28
sS'walls'
p60
(igame
Grid
p61
(dp62
g15
I30
sg16
I28
sg17
(lp63
(lp64
I01
aI01
aI01
aI01
aI01
aI01
aI01
aI01
aI01
aI01
aI01
aI01
aI01
aI01
aI01
aI01
aI01
aI01
aI01
aI01
aI01
aI01
aI01
aI01
aI01
aI01
aI01
aa(lp65
I01
aI00
aI00
aI00
aI01
aI01
aI00
aI00
aI00
aI00
aI01
aI01
aI01
aI00
aI01
aI01
aI01
aI01
aI00
aI00
aI00
aI00
aI00
aI00
aI00
aI00
aI01
aa(lp66
I01
aI00
aI01
aI00
aI01
aI01
aI00
aI01
aI01
aI00
aI01
aI01
aI01
aI00
aI01
aI01
aI01
aI01
aI00
aI01
aI01
aI00
aI01
aI01
aI01
aI00
aI01
aa(lp67
I01
aI00
aI01
aI00
aI00
aI00
aI00
aI01
aI01
aI00
aI01
aI01
aI01
aI00
aI01
aI01
aI01
aI01
aI00
aI01
aI01
aI00
aI01
aI01
aI01
aI00
aI01
aa(lp68
I01
aI00
aI01
aI00
aI01
aI01
aI01
aI01
aI01
aI00
aI01
aI01
aI01
aI00
aI01
aI01
aI01
aI01
aI00
aI01
aI01
aI00
aI01
aI01
aI01
aI00
aI01
aa(lp69
I01
aI00
aI01
aI00
aI01
aI01
aI01
aI01
aI01
aI00
aI01
aI01
aI01
aI00
aI01
aI01
aI01
aI01
aI00
aI01
aI01
aI00
aI01
aI01
aI01
aI00
aI01
aa(lp70
I01
aI00
aI01
aI00
aI00
aI00
aI00
aI00
aI00
aI00
aI00
aI00
aI00
aI00
aI00
aI00
aI00
aI00
aI00
aI00
aI00
aI00
aI00
aI00
aI00
aI00
aI01
aa(lp71
I01
aI00
aI01
aI01
aI01
aI01
aI00
aI01
aI01
aI00
aI01
aI01
aI01
aI00
aI01
aI01
aI01
aI01
aI01
aI01
aI01
aI00
aI01
aI01
aI01
aI00
aI01
aa(lp72
I01
aI00
aI01
aI01
aI01
aI01
aI00
aI01
aI01
aI00
aI00
aI00
aI00
aI00
aI00
aI00
aI01
aI01
aI01
aI01
aI01
aI00
aI01
aI01
aI01
aI00
aI01
aa(lp73
I01
aI00
aI01
aI00
aI00
aI00
aI00
aI01
aI01
aI00
aI01
aI00
aI01
aI01
aI01
aI00
aI01
aI01
aI00
aI00
aI00
aI00
aI01
aI01
aI01
aI00
aI01
aa(lp74
I01
aI00
aI01
aI00
aI01
aI01
aI00
aI01
aI01
aI00
aI01
aI00
aI01
aI00
aI01
aI00
aI01
aI01
aI00
aI01
aI01
aI00
aI01
aI01
aI01
aI00
aI01
aa(lp75
I01
aI00
aI01
aI00
aI01
aI01
aI00
aI01
aI01
aI00
aI01
aI00
aI01
aI00
aI01
aI00
aI01
aI01
aI00
aI01
aI01
aI00
aI01
aI01
aI01
aI00
aI01
aa(lp76
I01
aI00
aI00
aI00
aI01
aI01
aI00
aI00
aI00
aI00
aI01
aI00
aI01
aI00
aI01
aI00
aI00
aI00
aI00
aI01
aI01
aI00
aI00
aI00
aI00
aI00
aI01
aa(lp77
I01
aI00
aI01
aI01
aI01
aI01
aI00
aI01
aI01
aI01
aI01
aI00
aI01
aI00
aI00
aI00
aI01
aI01
aI01
aI01
aI01
aI00
aI01
aI01
aI01
aI01
aI01
aa(lp78
I01
aI00
aI01
aI01
aI01
aI01
aI00
aI01
aI01
aI01
aI01
aI00
aI01
aI00
aI00
aI00
aI01
aI01
aI01
aI01
aI01
aI00
aI01
aI01
aI01
aI01
aI01
aa(lp79
I01
aI00
aI00
aI00
aI01
aI01
aI00
aI00
aI00
aI00
aI01
aI00
aI01
aI00
aI01
aI00
aI00
aI00
aI00
aI01
aI01
aI00
aI00
aI00
aI00
aI00
aI01
aa(lp80
I01
aI00
aI01
aI00
aI01
aI01
aI00
aI01
aI01
aI00
aI01
aI00
aI01
aI00
aI01
aI00
aI01
aI01
aI00
aI01
aI01
aI00
aI01
aI01
aI01
aI00
aI01
aa(lp81
I01
aI00
aI01
aI00
aI01
aI01
aI00
aI01
aI01
aI00
aI01
aI00
aI01
aI00
aI01
aI00
aI01
aI01
aI00
aI01
aI01
aI00
aI01
aI01
aI01
aI00
aI01
aa(lp82
I01
aI00
aI01
aI00
aI00
aI00
aI00
aI01
aI01
aI00
aI01
aI00
aI01
aI01
aI01
aI00
aI01
aI01
aI00
aI00
aI00
aI00
aI01
aI01
aI01
aI00
aI01
aa(lp83
I01
aI00
aI01
aI01
aI01
aI01
aI00
aI01
aI01
aI00
aI00
aI00
aI00
aI00
aI00
aI00
aI01
aI01
aI01
aI01
aI01
aI00
aI01
aI01
aI01
aI00
aI01
aa(lp84
I01
aI00
aI01
aI01
aI01
aI01
aI00
aI01
aI01
aI00
aI01
aI01
aI01
aI00
aI01
aI01
aI01
aI01
aI01
aI01
aI01
aI00
aI01
aI01
aI01
aI00
aI01
aa(lp85
I01
aI00
aI01
aI00
aI00
aI00
aI00
aI00
aI00
aI00
aI00
aI00
aI00
aI00
aI00
aI00
aI00
aI00
aI00
aI00
aI00
aI00
aI00
aI00
aI00
aI00
aI01
aa(lp86
I01
aI00
aI01
aI00
aI01
aI01
aI01
aI01
aI01
aI00
aI01
aI01
aI01
aI00
aI01
aI01
aI01
aI01
aI00
aI01
aI01
aI00
aI01
aI01
aI01
aI00
aI01
aa(lp87
I01
aI00
aI01
aI00
aI01
aI01
aI01
aI01
aI01
aI00
aI01
aI01
aI01
aI00
aI01
aI01
aI01
aI01
aI00
aI01
aI01
aI00
aI01
aI01
aI01
aI00
aI01
aa(lp88
I01
aI00
aI01
aI00
aI00
aI00
aI00
aI01
aI01
aI00
aI01
aI01
aI01
aI00
aI01
aI01
aI01
aI01
aI00
aI01
aI01
aI00
aI01
aI01
aI01
aI00
aI01
aa(lp89
I01
aI00
aI01
aI00
aI01
aI01
aI00
aI01
aI01
aI00
aI01
aI01
aI01
aI00
aI01
aI01
aI01
aI01
aI00
aI01
aI01
aI00
aI01
aI01
aI01
aI00
aI01
aa(lp90
I01
aI00
aI00
aI00
aI01
aI01
aI00
aI00
aI00
aI00
aI01
aI01
aI01
aI00
aI01
aI01
aI01
aI01
aI00
aI00
aI00
aI00
aI00
aI00
aI00
aI00
aI01
aa(lp91
I01
aI01
aI01
aI01
aI01
aI01
aI01
aI01
aI01
aI01
aI01
aI01
aI01
aI01
aI01
aI01
aI01
aI01
aI01
aI01
aI01
aI01
aI01
aI01
aI01
aI01
aI01
aasg47
I27
sbsS'totalFood'
p92
I229
sS'layoutText'
p93
(lp94
S'%%%%%%%%%%%%%%%%%%%%%%%%%%%%'
p95
aS'%............%%............%'
p96
aS'%.%%%%.%%%%%.%%.%%%%%.%%%%.%'
p97
aS'%o%%%%.%%%%%.%%.%%%%%.%%%%o%'
p98
aS'%.%%%%.%%%%%.%%.%%%%%.%%%%.%'
p99
aS'%..........................%'
p100
aS'%.%%%%.%%.%%%%%%%%.%%.%%%%.%'
p101
aS'%.%%%%.%%.%%%%%%%%.%%.%%%%.%'
p102
aS'%......%%....%%....%%......%'
p103
aS'%%%%%%.%%%%% %% %%%%%.%%%%%%'
p104
aS'%%%%%%.%%%%% %% %%%%%.%%%%%%'
p105
aS'%%%%%%.%            %.%%%%%%'
p106
aS'%%%%%%.% %%%%  %%%% %.%%%%%%'
p107
aS'%     .  %G  GG  G%  .     %'
p108
aS'%%%%%%.% %%%%%%%%%% %.%%%%%%'
p109
aS'%%%%%%.%            %.%%%%%%'
p110
aS'%%%%%%.% %%%%%%%%%% %.%%%%%%'
p111
aS'%............%%............%'
p112
aS'%.%%%%.%%%%%.%%.%%%%%.%%%%.%'
p113
aS'%.%%%%.%%%%%.%%.%%%%%.%%%%.%'
p114
aS'%o..%%.......  .......%%..o%'
p115
aS'%%%.%%.%%.%%%%%%%%.%%.%%.%%%'
p116
aS'%%%.%%.%%.%%%%%%%%.%%.%%.%%%'
p117
aS'%......%%....%%....%%......%'
p118
aS'%.%%%%%%%%%%.%%.%%%%%%%%%%.%'
p119
aS'%.............P............%'
p120
aS'%%%%%%%%%%%%%%%%%%%%%%%%%%%%'
p121
asbsS'actions'
p122
(lp123
(I0
S'West'
p124
tp125
a(I1
S'East'
p126
tp127
a(I2
S'North'
p128
tp129
a(I3
g124
tp130
a(I4
g124
tp131
a(I0
g124
tp132
a(I1
g126
tp133
a(I2
g126
tp134
a(I3
g128
tp135
a(I4
g124
tp136
a(I0
g124
tp137
a(I1
g126
tp138
a(I2
g128
tp139
a(I3
g128
tp140
a(I4
g124
tp141
a(I0
g124
tp142
a(I1
g126
tp143
a(I2
g124
tp144
a(I3
g124
tp145
a(I4
g124
tp146
a(I0
g124
tp147
a(I1
g126
tp148
a(I2
g124
tp149
a(I3
g128
tp150
a(I4
g124
tp151
a(I0
g124
tp152
a(I1
g126
tp153
a(I2
g128
tp154
a(I3
g128
tp155
a(I4
g124
tp156
a(I0
g124
tp157
a(I1
g126
tp158
a(I2
g128
tp159
a(I3
g128
tp160
a(I4
g124
tp161
a(I0
g124
tp162
a(I1
g124
tp163
a(I2
g128
tp164
a(I3
g124
tp165
a(I4
g126
tp166
a(I0
S'Stop'
p167
tp168
a(I1
g124
tp169
a(I2
g124
tp170
a(I3
g124
tp171
a(I4
g126
tp172
a(I0
g124
tp173
a(I1
g124
tp174
a(I2
g124
tp175
a(I3
g124
tp176
a(I4
g126
tp177
a(I0
g124
tp178
a(I1
g124
tp179
a(I2
g124
tp180
a(I3
g128
tp181
a(I4
g128
tp182
a(I0
g124
tp183
a(I1
g128
tp184
a(I2
g128
tp185
a(I3
g128
tp186
a(I4
g126
tp187
a(I0
g124
tp188
a(I1
g126
tp189
a(I2
g128
tp190
a(I3
g128
tp191
a(I4
S'South'
p192
tp193
a(I0
g124
tp194
a(I1
g192
tp195
a(I2
g128
tp196
a(I3
g124
tp197
a(I4
g126
tp198
a(I0
g128
tp199
a(I1
g126
tp200
a(I2
g126
tp201
a(I3
g124
tp202
a(I4
g126
tp203
a(I0
g128
tp204
a(I1
g126
tp205
a(I2
g126
tp206
a(I3
g124
tp207
a(I4
g126
tp208
a(I0
g126
tp209
a(I1
g126
tp210
a(I2
g126
tp211
a(I3
g128
tp212
a(I4
g124
tp213
a(I0
g126
tp214
a(I1
g124
tp215
a(I2
g126
tp216
a(I3
g128
tp217
a(I4
g124
tp218
a(I0
g126
tp219
a(I1
g124
tp220
a(I2
g126
tp221
a(I3
g128
tp222
a(I4
g124
tp223
a(I0
g126
tp224
a(I1
g124
tp225
a(I2
g126
tp226
a(I3
g128
tp227
a(I4
g128
tp228
a(I0
g126
tp229
a(I1
g128
tp230
a(I2
g128
tp231
a(I3
g126
tp232
a(I4
g124
tp233
a(I0
g128
tp234
a(I1
g128
tp235
a(I2
g128
tp236
a(I3
g126
tp237
a(I4
g128
tp238
a(I0
g128
tp239
a(I1
g126
tp240
a(I2
g128
tp241
a(I3
g126
tp242
a(I4
g124
tp243
a(I0
g128
tp244
a(I1
g128
tp245
a(I2
g128
tp246
a(I3
g126
tp247
a(I4
g124
tp248
a(I0
g128
tp249
a(I1
g128
tp250
a(I2
g126
tp251
a(I3
g126
tp252
a(I4
g124
tp253
a(I0
g128
tp254
a(I1
g128
tp255
a(I2
g126
tp256
a(I3
g126
tp257
a(I4
g124
tp258
a(I0
g128
tp259
a(I1
g126
tp260
a(I2
g126
tp261
a(I3
g192
tp262
a(I4
g124
tp263
a(I0
g124
tp264
a(I1
g126
tp265
a(I2
g126
tp266
a(I3
g192
tp267
a(I4
g192
tp268
a(I0
g124
tp269
a(I1
g126
tp270
a(I2
g126
tp271
a(I3
g192
tp272
a(I4
g192
tp273
a(I0
g124
tp274
a(I1
g128
tp275
a(I2
g126
tp276
a(I3
g192
tp277
a(I4
g192
tp278
a(I0
g124
tp279
a(I1
g128
tp280
a(I2
g192
tp281
a(I3
g124
tp282
a(I4
g192
tp283
a(I0
g124
tp284
a(I1
g128
tp285
a(I2
g192
tp286
a(I3
g124
tp287
a(I4
g192
tp288
a(I0
g192
tp289
a(I1
g124
tp290
a(I2
g192
tp291
a(I3
g124
tp292
a(I4
g192
tp293
a(I0
g192
tp294
a(I1
g124
tp295
a(I2
g192
tp296
a(I3
g192
tp297
a(I4
g124
tp298
a(I0
g192
tp299
a(I1
g124
tp300
a(I2
g124
tp301
a(I3
g192
tp302
a(I4
g124
tp303
a(I0
g126
tp304
a(I1
g124
tp305
a(I2
g124
tp306
a(I3
g192
tp307
a(I4
g124
tp308
a(I0
g126
tp309
a(I1
g128
tp310
a(I2
g124
tp311
a(I3
g192
tp312
a(I4
g192
tp313
a(I0
g192
tp314
a(I1
g128
tp315
a(I2
g124
tp316
a(I3
g192
tp317
a(I4
g192
tp318
a(I0
g192
tp319
a(I1
g128
tp320
a(I2
g124
tp321
a(I3
g126
tp322
a(I4
g192
tp323
a(I0
g192
tp324
a(I1
g128
tp325
a(I2
g124
tp326
a(I3
g126
tp327
a(I4
g192
tp328
a(I0
g126
tp329
a(I1
g128
tp330
a(I2
g124
tp331
a(I3
g126
tp332
a(I4
g192
tp333
a(I0
g126
tp334
a(I1
g128
tp335
a(I2
g124
tp336
a(I3
g126
tp337
a(I4
g192
tp338
a(I0
g126
tp339
a(I1
g128
tp340
a(I2
g124
tp341
a(I3
g126
tp342
a(I4
g192
tp343
a(I0
g128
tp344
a(I1
g128
tp345
a(I2
g124
tp346
a(I3
g126
tp347
a(I4
g192
tp348
a(I0
g192
tp349
a(I1
g126
tp350
a(I2
g124
tp351
a(I3
g192
tp352
a(I4
g192
tp353
a(I0
g167
tp354
a(I1
g126
tp355
a(I2
g124
tp356
a(I3
g192
tp357
a(I4
g192
tp358
a(I0
g124
tp359
a(I1
g126
tp360
a(I2
g124
tp361
a(I3
g192
tp362
a(I4
g192
tp363
a(I0
g167
tp364
a(I1
g126
tp365
a(I2
g124
tp366
a(I3
g192
tp367
a(I4
g192
tp368
a(I0
g124
tp369
a(I1
g126
tp370
a(I2
g124
tp371
a(I3
g192
tp372
a(I4
g124
tp373
a(I0
g167
tp374
a(I1
g126
tp375
a(I2
g124
tp376
a(I3
g192
tp377
a(I4
g124
tp378
a(I0
g126
tp379
a(I1
g126
tp380
a(I2
g124
tp381
a(I3
g124
tp382
a(I4
g124
tp383
a(I0
g126
tp384
a(I1
g126
tp385
a(I2
g124
tp386
a(I3
g124
tp387
a(I4
g124
tp388
a(I0
g128
tp389
a(I1
g126
tp390
a(I2
g124
tp391
a(I3
g124
tp392
a(I4
g124
tp393
a(I0
g192
tp394
a(I1
g126
tp395
a(I2
g124
tp396
a(I3
g124
tp397
a(I4
g124
tp398
a(I0
g128
tp399
a(I1
g126
tp400
a(I2
g124
tp401
a(I3
g124
tp402
a(I4
g128
tp403
a(I0
g128
tp404
a(I1
g126
tp405
a(I2
g124
tp406
a(I3
g124
tp407
a(I4
g126
tp408
a(I0
g128
tp409
a(I1
g192
tp410
a(I2
g124
tp411
a(I3
g124
tp412
a(I4
g192
tp413
a(I0
g126
tp414
a(I1
g192
tp415
a(I2
g124
tp416
a(I3
g124
tp417
a(I4
g126
tp418
a(I0
g126
tp419
a(I1
g192
tp420
a(I2
g192
tp421
a(I3
g192
tp422
a(I4
g126
tp423
a(I0
g126
tp424
a(I1
g192
tp425
a(I2
g192
tp426
a(I3
g192
tp427
a(I4
g126
tp428
a(I0
g126
tp429
a(I1
g192
tp430
a(I2
g192
tp431
a(I3
g192
tp432
a(I4
g124
tp433
a(I0
g126
tp434
a(I1
g192
tp435
a(I2
g192
tp436
a(I3
g192
tp437
a(I4
g124
tp438
a(I0
g126
tp439
a(I1
g192
tp440
a(I2
g192
tp441
a(I3
g124
tp442
a(I4
g124
tp443
a(I0
g128
tp444
a(I1
g192
tp445
a(I2
g192
tp446
a(I3
g124
tp447
a(I4
g124
tp448
a(I0
g128
tp449
a(I1
g124
tp450
a(I2
g126
tp451
a(I3
g124
tp452
a(I4
g128
tp453
a(I0
g128
tp454
a(I1
g124
tp455
a(I2
g126
tp456
a(I3
g124
tp457
a(I4
g128
tp458
a(I0
g124
tp459
a(I1
g124
tp460
a(I2
g126
tp461
a(I3
g128
tp462
a(I4
g126
tp463
a(I0
g124
tp464
a(I1
g124
tp465
a(I2
g126
tp466
a(I3
g128
tp467
a(I4
g126
tp468
a(I0
g124
tp469
a(I1
g124
tp470
a(I2
g126
tp471
a(I3
g128
tp472
a(I4
g126
tp473
a(I0
g124
tp474
a(I1
g124
tp475
a(I2
g126
tp476
a(I3
g128
tp477
a(I4
g126
tp478
a(I0
g124
tp479
a(I1
g192
tp480
a(I2
g192
tp481
a(I3
g128
tp482
a(I4
g126
tp483
a(I0
g126
tp484
a(I1
g192
tp485
a(I2
g192
tp486
a(I3
g128
tp487
a(I4
g126
tp488
a(I0
g124
tp489
a(I1
g192
tp490
a(I2
g192
tp491
a(I3
g128
tp492
a(I4
g192
tp493
a(I0
g124
tp494
a(I1
g192
tp495
a(I2
g192
tp496
a(I3
g128
tp497
a(I4
g192
tp498
a(I0
g128
tp499
a(I1
g192
tp500
a(I2
g192
tp501
a(I3
g128
tp502
a(I4
g192
tp503
a(I0
g128
tp504
a(I1
g124
tp505
a(I2
g126
tp506
a(I3
g128
tp507
a(I4
g192
tp508
a(I0
g128
tp509
a(I1
g124
tp510
a(I2
g126
tp511
a(I3
g128
tp512
a(I4
g192
tp513
a(I0
g128
tp514
a(I1
g124
tp515
a(I2
g192
tp516
a(I3
g128
tp517
a(I4
g192
tp518
a(I0
g128
tp519
a(I1
g192
tp520
a(I2
g124
tp521
a(I3
g124
tp522
a(I4
g126
tp523
a(I0
g128
tp524
a(I1
g192
tp525
a(I2
g128
tp526
a(I3
g124
tp527
a(I4
g126
tp528
a(I0
g128
tp529
a(I1
g192
tp530
a(I2
g124
tp531
a(I3
g124
tp532
a(I4
g126
tp533
a(I0
g128
tp534
a(I1
g126
tp535
a(I2
g128
tp536
a(I3
g124
tp537
a(I4
g126
tp538
a(I0
g128
tp539
a(I1
g126
tp540
a(I2
g128
tp541
a(I3
g124
tp542
a(I4
g126
tp543
a(I0
g124
tp544
a(I1
g126
tp545
a(I2
g128
tp546
a(I3
g128
tp547
a(I4
g126
tp548
a(I0
g124
tp549
a(I1
g126
tp550
a(I2
g124
tp551
a(I3
g128
tp552
a(I4
g126
tp553
a(I0
g124
tp554
a(I1
g192
tp555
a(I2
g124
tp556
a(I3
g128
tp557
a(I4
g192
tp558
a(I0
g124
tp559
a(I1
g192
tp560
a(I2
g124
tp561
a(I3
g128
tp562
a(I4
g192
tp563
a(I0
g124
tp564
a(I1
g192
tp565
a(I2
g128
tp566
a(I3
g126
tp567
a(I4
g192
tp568
a(I0
g128
tp569
a(I1
g192
tp570
a(I2
g128
tp571
a(I3
g126
tp572
a(I4
g124
tp573
a(I0
g128
tp574
a(I1
g192
tp575
a(I2
g128
tp576
a(I3
g126
tp577
a(I4
g124
tp578
a(I0
g128
tp579
a(I1
g192
tp580
a(I2
g124
tp581
a(I3
g126
tp582
a(I4
g192
tp583
a(I0
g192
tp584
a(I1
g126
tp585
a(I2
g124
tp586
a(I3
g126
tp587
a(I4
g192
tp588
a(I0
g128
tp589
a(I1
g126
tp590
a(I2
g124
tp591
a(I3
g126
tp592
a(I4
g192
tp593
a(I0
g128
tp594
a(I1
g192
tp595
a(I2
g192
tp596
a(I3
g126
tp597
a(I4
g124
tp598
a(I0
g128
tp599
a(I1
g192
tp600
a(I2
g192
tp601
a(I3
g126
tp602
a(I4
g124
tp603
a(I0
g128
tp604
a(I1
g192
tp605
a(I2
g192
tp606
a(I3
g126
tp607
a(I4
g124
tp608
a(I0
g128
tp609
a(I1
g192
tp610
a(I2
g192
tp611
a(I3
g126
tp612
a(I4
g124
tp613
a(I0
g126
tp614
a(I1
g192
tp615
a(I2
g192
tp616
a(I3
g126
tp617
a(I4
g124
tp618
a(I0
g126
tp619
a(I1
g192
tp620
a(I2
g124
tp621
a(I3
g126
tp622
a(I4
g128
tp623
a(I0
g126
tp624
a(I1
g192
tp625
a(I2
g124
tp626
a(I3
g126
tp627
a(I4
g128
tp628
a(I0
g126
tp629
a(I1
g192
tp630
a(I2
g124
tp631
a(I3
g126
tp632
a(I4
g128
tp633
a(I0
g126
tp634
a(I1
g192
tp635
a(I2
g124
tp636
a(I3
g126
tp637
a(I4
g128
tp638
a(I0
g126
tp639
a(I1
g192
tp640
a(I2
g124
tp641
a(I3
g192
tp642
a(I4
g128
tp643
a(I0
g126
tp644
a(I1
g192
tp645
a(I2
g124
tp646
a(I3
g192
tp647
a(I4
g128
tp648
a(I0
g126
tp649
a(I1
g126
tp650
a(I2
g124
tp651
a(I3
g192
tp652
a(I4
g124
tp653
a(I0
g126
tp654
a(I1
g126
tp655
a(I2
g124
tp656
a(I3
g192
tp657
a(I4
g124
tp658
a(I0
g167
tp659
a(I1
g126
tp660
a(I2
g124
tp661
a(I3
g192
tp662
a(I4
g124
tp663
a(I0
g126
tp664
a(I1
g126
tp665
a(I2
g124
tp666
a(I3
g192
tp667
a(I4
g124
tp668
a(I0
g126
tp669
a(I1
g126
tp670
a(I2
g128
tp671
a(I3
g192
tp672
a(I4
g124
tp673
a(I0
g192
tp674
a(I1
g126
tp675
a(I2
g128
tp676
a(I3
g192
tp677
a(I4
g124
tp678
a(I0
g192
tp679
a(I1
g126
tp680
a(I2
g128
tp681
a(I3
g126
tp682
a(I4
g192
tp683
a(I0
g192
tp684
a(I1
g126
tp685
a(I2
g128
tp686
a(I3
g126
tp687
a(I4
g192
tp688
a(I0
g167
tp689
a(I1
g126
tp690
a(I2
g128
tp691
a(I3
g126
tp692
a(I4
g192
tp693
a(I0
g192
tp694
a(I1
g126
tp695
a(I2
g128
tp696
a(I3
g126
tp697
a(I4
g192
tp698
a(I0
g124
tp699
a(I1
g192
tp700
a(I2
g128
tp701
a(I3
g126
tp702
a(I4
g192
tp703
a(I0
g124
tp704
a(I1
g192
tp705
a(I2
g128
tp706
a(I3
g126
tp707
a(I4
g192
tp708
a(I0
g124
tp709
a(I1
g192
tp710
a(I2
g128
tp711
a(I3
g126
tp712
a(I4
g124
tp713
a(I0
g124
tp714
a(I1
g192
tp715
a(I2
g128
tp716
a(I3
g126
tp717
a(I4
g124
tp718
a(I0
g124
tp719
a(I1
g124
tp720
a(I2
g128
tp721
a(I3
g126
tp722
a(I4
g124
tp723
a(I0
g124
tp724
a(I1
g124
tp725
a(I2
g128
tp726
a(I3
g126
tp727
a(I4
g124
tp728
a(I0
g124
tp729
a(I1
g124
tp730
a(I2
g128
tp731
a(I3
g126
tp732
a(I4
g124
tp733
a(I0
g124
tp734
a(I1
g124
tp735
a(I2
g128
tp736
a(I3
g126
tp737
a(I4
g124
tp738
a(I0
g124
tp739
a(I1
g124
tp740
a(I2
g126
tp741
a(I3
g126
tp742
a(I4
g192
tp743
a(I0
g124
tp744
a(I1
g124
tp745
a(I2
g126
tp746
a(I3
g126
tp747
a(I4
g192
tp748
a(I0
g126
tp749
a(I1
g124
tp750
a(I2
g126
tp751
a(I3
g126
tp752
a(I4
g192
tp753
a(I0
g126
tp754
a(I1
g124
tp755
a(I2
g126
tp756
a(I3
g126
tp757
a(I4
g192
tp758
a(I0
g126
tp759
a(I1
g124
tp760
a(I2
g126
tp761
a(I3
g126
tp762
a(I4
g124
tp763
a(I0
g126
tp764
a(I1
g124
tp765
a(I2
g126
tp766
a(I3
g126
tp767
a(I4
g124
tp768
a(I0
g192
tp769
a(I1
g124
tp770
a(I2
g126
tp771
a(I3
g192
tp772
a(I4
g124
tp773
a(I0
g192
tp774
a(I1
g124
tp775
a(I2
g126
tp776
a(I3
g192
tp777
a(I4
g124
tp778
a(I0
g128
tp779
a(I1
g124
tp780
a(I2
g126
tp781
a(I3
g192
tp782
a(I4
g124
tp783
a(I0
g128
tp784
a(I1
g124
tp785
a(I2
g126
tp786
a(I3
g192
tp787
a(I4
g124
tp788
a(I0
g128
tp789
a(I1
g124
tp790
a(I2
g126
tp791
a(I3
g192
tp792
a(I4
g128
tp793
a(I0
g128
tp794
a(I1
g124
tp795
a(I2
g126
tp796
a(I3
g192
tp797
a(I4
g128
tp798
a(I0
g128
tp799
a(I1
g124
tp800
a(I2
g126
tp801
a(I3
g126
tp802
a(I4
g128
tp803
a(I0
g192
tp804
a(I1
g124
tp805
a(I2
g126
tp806
a(I3
g126
tp807
a(I4
g124
tp808
a(I0
g192
tp809
a(I1
g124
tp810
a(I2
g126
tp811
a(I3
g126
tp812
a(I4
g124
tp813
a(I0
g192
tp814
a(I1
g128
tp815
a(I2
g126
tp816
a(I3
g126
tp817
a(I4
g124
tp818
a(I0
g126
tp819
a(I1
g128
tp820
a(I2
g126
tp821
a(I3
g126
tp822
a(I4
g128
tp823
a(I0
g126
tp824
a(I1
g126
tp825
a(I2
g192
tp826
a(I3
g128
tp827
a(I4
g128
tp828
a(I0
g126
tp829
a(I1
g126
tp830
a(I2
g192
tp831
a(I3
g128
tp832
a(I4
g128
tp833
a(I0
g192
tp834
a(I1
g126
tp835
a(I2
g192
tp836
a(I3
g128
tp837
a(I4
g124
tp838
a(I0
g192
tp839
a(I1
g128
tp840
a(I2
g192
tp841
a(I3
g124
tp842
a(I4
g124
tp843
a(I0
g192
tp844
a(I1
g128
tp845
a(I2
g124
tp846
a(I3
g124
tp847
a(I4
g124
tp848
a(I0
g126
tp849
a(I1
g128
tp850
a(I2
g124
tp851
a(I3
g124
tp852
a(I4
g192
tp853
a(I0
g126
tp854
a(I1
g124
tp855
a(I2
g124
tp856
a(I3
g124
tp857
a(I4
g192
tp858
a(I0
g126
tp859
a(I1
g124
tp860
a(I2
g192
tp861
a(I3
g124
tp862
a(I4
g192
tp863
a(I0
g192
tp864
a(I1
g124
tp865
a(I2
g192
tp866
a(I3
g128
tp867
a(I4
g124
tp868
a(I0
g192
tp869
a(I1
g128
tp870
a(I2
g192
tp871
a(I3
g128
tp872
a(I4
g124
tp873
a(I0
g192
tp874
a(I1
g128
tp875
a(I2
g126
tp876
a(I3
g128
tp877
a(I4
g124
tp878
a(I0
g126
tp879
a(I1
g128
tp880
a(I2
g126
tp881
a(I3
g128
tp882
a(I4
g124
tp883
a(I0
g126
tp884
a(I1
g126
tp885
a(I2
g126
tp886
a(I3
g126
tp887
a(I4
g124
tp888
a(I0
g126
tp889
a(I1
g126
tp890
a(I2
g192
tp891
a(I3
g126
tp892
a(I4
g192
tp893
a(I0
g128
tp894
a(I1
g126
tp895
a(I2
g192
tp896
a(I3
g126
tp897
a(I4
g192
tp898
a(I0
g128
tp899
a(I1
g126
tp900
a(I2
g192
tp901
a(I3
g126
tp902
a(I4
g126
tp903
a(I0
g128
tp904
a(I1
g126
tp905
a(I2
g126
tp906
a(I3
g126
tp907
a(I4
g126
tp908
a(I0
g126
tp909
a(I1
g126
tp910
a(I2
g126
tp911
a(I3
g192
tp912
a(I4
g126
tp913
a(I0
g126
tp914
a(I1
g128
tp915
a(I2
g192
tp916
a(I3
g192
tp917
a(I4
g126
tp918
a(I0
g126
tp919
a(I1
g128
tp920
a(I2
g124
tp921
a(I3
g192
tp922
a(I4
g126
tp923
a(I0
g124
tp924
a(I1
g128
tp925
a(I2
g192
tp926
a(I3
g192
tp927
a(I4
g126
tp928
a(I0
g126
tp929
a(I1
g128
tp930
a(I2
g124
tp931
a(I3
g192
tp932
a(I4
g126
tp933
a(I0
g128
tp934
a(I1
g126
tp935
a(I2
g124
tp936
a(I3
g192
tp937
a(I4
g126
tp938
a(I0
g128
tp939
a(I1
g126
tp940
a(I2
g124
tp941
a(I3
g192
tp942
a(I4
g126
tp943
a(I0
g128
tp944
a(I1
g126
tp945
a(I2
g126
tp946
a(I3
g124
tp947
a(I4
g126
tp948
a(I0
g124
tp949
a(I1
g126
tp950
a(I2
g126
tp951
a(I3
g124
tp952
a(I4
g126
tp953
a(I0
g124
tp954
a(I1
g126
tp955
a(I2
g126
tp956
a(I3
g124
tp957
a(I4
g126
tp958
a(I0
g124
tp959
a(I1
g124
tp960
a(I2
g128
tp961
a(I3
g124
tp962
a(I4
g126
tp963
a(I0
g124
tp964
a(I1
g124
tp965
a(I2
g128
tp966
a(I3
g124
tp967
a(I4
g126
tp968
a(I0
g124
tp969
a(I1
g124
tp970
a(I2
g124
tp971
a(I3
g192
tp972
a(I4
g126
tp973
a(I0
g126
tp974
a(I1
g124
tp975
a(I2
g124
tp976
a(I3
g192
tp977
a(I4
g126
tp978
a(I0
g126
tp979
a(I1
g124
tp980
a(I2
g124
tp981
a(I3
g192
tp982
a(I4
g126
tp983
a(I0
g128
tp984
a(I1
g128
tp985
a(I2
g124
tp986
a(I3
g192
tp987
a(I4
g126
tp988
a(I0
g128
tp989
a(I1
g128
tp990
a(I2
g124
tp991
a(I3
g192
tp992
a(I4
g126
tp993
a(I0
g128
tp994
a(I1
g128
tp995
a(I2
g192
tp996
a(I3
g124
tp997
a(I4
g126
tp998
a(I0
g128
tp999
a(I1
g128
tp1000
a(I2
g192
tp1001
a(I3
g124
tp1002
a(I4
g126
tp1003
a(I0
g126
tp1004
a(I1
g128
tp1005
a(I2
g124
tp1006
a(I3
g192
tp1007
a(I4
g126
tp1008
a(I0
g126
tp1009
a(I1
g128
tp1010
a(I2
g124
tp1011
a(I3
g192
tp1012
a(I4
g126
tp1013
a(I0
g126
tp1014
a(I1
g128
tp1015
a(I2
g124
tp1016
a(I3
g124
tp1017
a(I4
g126
tp1018
a(I0
g126
tp1019
a(I1
g128
tp1020
a(I2
g124
tp1021
a(I3
g124
tp1022
a(I4
g126
tp1023
a(I0
g126
tp1024
a(I1
g124
tp1025
a(I2
g124
tp1026
a(I3
g124
tp1027
a(I4
g128
tp1028
a(I0
g126
tp1029
a(I1
g124
tp1030
a(I2
g124
tp1031
a(I3
g124
tp1032
a(I4
g128
tp1033
a(I0
g126
tp1034
a(I1
g124
tp1035
a(I2
g124
tp1036
a(I3
g124
tp1037
a(I4
g124
tp1038
a(I0
g126
tp1039
a(I1
g192
tp1040
a(I2
g126
tp1041
a(I3
g124
tp1042
a(I4
g124
tp1043
a(I0
g126
tp1044
a(I1
g192
tp1045
a(I2
g126
tp1046
a(I3
g124
tp1047
a(I4
g128
tp1048
a(I0
g126
tp1049
a(I1
g192
tp1050
a(I2
g126
tp1051
a(I3
g124
tp1052
a(I4
g128
tp1053
a(I0
g126
tp1054
a(I1
g124
tp1055
a(I2
g126
tp1056
a(I3
g124
tp1057
a(I4
g128
tp1058
a(I0
g192
tp1059
a(I1
g124
tp1060
a(I2
g126
tp1061
a(I3
g124
tp1062
a(I4
g126
tp1063
a(I0
g192
tp1064
a(I1
g124
tp1065
a(I2
g128
tp1066
a(I3
g124
tp1067
a(I4
g126
tp1068
a(I0
g192
tp1069
a(I1
g124
tp1070
a(I2
g128
tp1071
a(I3
g124
tp1072
a(I4
g126
tp1073
a(I0
g192
tp1074
a(I1
g192
tp1075
a(I2
g128
tp1076
a(I3
g192
tp1077
a(I4
g128
tp1078
a(I0
g167
tp1079
a(I1
g192
tp1080
a(I2
g128
tp1081
a(I3
g192
tp1082
a(I4
g128
tp1083
a(I0
g124
tp1084
a(I1
g192
tp1085
a(I2
g128
tp1086
a(I3
g192
tp1087
a(I4
g128
tp1088
a(I0
g124
tp1089
a(I1
g192
tp1090
a(I2
g128
tp1091
a(I3
g192
tp1092
a(I4
g128
tp1093
a(I0
g126
tp1094
a(I1
g192
tp1095
a(I2
g128
tp1096
a(I3
g124
tp1097
a(I4
g128
tp1098
a(I0
g124
tp1099
a(I1
g192
tp1100
a(I2
g128
tp1101
a(I3
g124
tp1102
a(I4
g128
tp1103
a(I0
g124
tp1104
a(I1
g126
tp1105
a(I2
g128
tp1106
a(I3
g124
tp1107
a(I4
g124
tp1108
a(I0
g124
tp1109
a(I1
g126
tp1110
a(I2
g128
tp1111
a(I3
g124
tp1112
a(I4
g124
tp1113
a(I0
g124
tp1114
a(I1
g126
tp1115
a(I2
g128
tp1116
a(I3
g192
tp1117
a(I4
g124
tp1118
a(I0
g124
tp1119
a(I1
g126
tp1120
a(I2
g128
tp1121
a(I3
g192
tp1122
a(I4
g124
tp1123
a(I0
g124
tp1124
a(I1
g126
tp1125
a(I2
g128
tp1126
a(I3
g192
tp1127
a(I4
g124
tp1128
a(I0
g126
tp1129
a(I1
g126
tp1130
a(I2
g128
tp1131
a(I3
g192
tp1132
a(I4
g124
tp1133
a(I0
g126
tp1134
a(I1
g126
tp1135
a(I2
g128
tp1136
a(I3
g192
tp1137
a(I4
g124
tp1138
a(I0
g192
tp1139
a(I1
g126
tp1140
a(I2
g128
tp1141
a(I3
g192
tp1142
a(I4
g124
tp1143
a(I0
g192
tp1144
a(I1
g192
tp1145
a(I2
g126
tp1146
a(I3
g192
tp1147
a(I4
g124
tp1148
a(I0
g192
tp1149
a(I1
g192
tp1150
a(I2
g126
tp1151
a(I3
g192
tp1152
a(I4
g124
tp1153
a(I0
g126
tp1154
a(I1
g192
tp1155
a(I2
g126
tp1156
a(I3
g192
tp1157
a(I4
g192
tp1158
a(I0
g126
tp1159
a(I1
g192
tp1160
a(I2
g126
tp1161
a(I3
g192
tp1162
a(I4
g192
tp1163
a(I0
g126
tp1164
a(I1
g126
tp1165
a(I2
g126
tp1166
a(I3
g192
tp1167
a(I4
g192
tp1168
a(I0
g126
tp1169
a(I1
g126
tp1170
a(I2
g126
tp1171
a(I3
g192
tp1172
a(I4
g192
tp1173
a(I0
g126
tp1174
a(I1
g126
tp1175
a(I2
g192
tp1176
a(I3
g124
tp1177
a(I4
g192
tp1178
a(I0
g128
tp1179
a(I1
g126
tp1180
a(I2
g192
tp1181
a(I3
g124
tp1182
a(I4
g192
tp1183
a(I0
g128
tp1184
a(I1
g126
tp1185
a(I2
g192
tp1186
a(I3
g124
tp1187
a(I4
g192
tp1188
a(I0
g128
tp1189
a(I1
g126
tp1190
a(I2
g192
tp1191
a(I3
g124
tp1192
a(I4
g192
tp1193
a(I0
g124
tp1194
a(I1
g126
tp1195
a(I2
g192
tp1196
a(I3
g124
tp1197
a(I4
g192
tp1198
a(I0
g124
tp1199
a(I1
g126
tp1200
a(I2
g192
tp1201
a(I3
g124
tp1202
a(I4
g192
tp1203
a(I0
g124
tp1204
a(I1
g126
tp1205
a(I2
g126
tp1206
a(I3
g128
tp1207
a(I4
g192
tp1208
a(I0
g124
tp1209
a(I1
g126
tp1210
a(I2
g126
tp1211
a(I3
g128
tp1212
a(I4
g192
tp1213
a(I0
g124
tp1214
a(I1
g126
tp1215
a(I2
g126
tp1216
a(I3
g128
tp1217
a(I4
g126
tp1218
a(I0
g128
tp1219
a(I1
g126
tp1220
a(I2
g126
tp1221
a(I3
g128
tp1222
a(I4
g126
tp1223
a(I0
g128
tp1224
a(I1
g126
tp1225
a(I2
g126
tp1226
a(I3
g128
tp1227
a(I4
g126
tp1228
a(I0
g128
tp1229
a(I1
g126
tp1230
a(I2
g126
tp1231
a(I3
g128
tp1232
a(I4
g126
tp1233
a(I0
g192
tp1234
a(I1
g124
tp1235
a(I2
g192
tp1236
a(I3
g124
tp1237
a(I4
g126
tp1238
a(I0
g192
tp1239
a(I1
g124
tp1240
a(I2
g192
tp1241
a(I3
g124
tp1242
a(I4
g126
tp1243
a(I0
g192
tp1244
a(I1
g124
tp1245
a(I2
g192
tp1246
a(I3
g124
tp1247
a(I4
g126
tp1248
a(I0
g192
tp1249
a(I1
g124
tp1250
a(I2
g192
tp1251
a(I3
g124
tp1252
a(I4
g126
tp1253
a(I0
g192
tp1254
a(I1
g124
tp1255
a(I2
g192
tp1256
a(I3
g128
tp1257
a(I4
g126
tp1258
a(I0
g192
tp1259
a(I1
g124
tp1260
a(I2
g192
tp1261
a(I3
g128
tp1262
a(I4
g126
tp1263
a(I0
g192
tp1264
a(I1
g124
tp1265
a(I2
g126
tp1266
a(I3
g128
tp1267
a(I4
g192
tp1268
a(I0
g192
tp1269
a(I1
g124
tp1270
a(I2
g192
tp1271
a(I3
g128
tp1272
a(I4
g192
tp1273
a(I0
g192
tp1274
a(I1
g124
tp1275
a(I2
g192
tp1276
a(I3
g126
tp1277
a(I4
g124
tp1278
a(I0
g167
tp1279
a(I1
g124
tp1280
a(I2
g126
tp1281
a(I3
g126
tp1282
a(I4
g124
tp1283
a(I0
g192
tp1284
a(I1
g128
tp1285
a(I2
g128
tp1286
a(I3
g126
tp1287
a(I4
g124
tp1288
a(I0
g192
tp1289
a(I1
g128
tp1290
a(I2
g128
tp1291
a(I3
g126
tp1292
a(I4
g124
tp1293
a(I0
g192
tp1294
a(I1
g124
tp1295
a(I2
g126
tp1296
a(I3
g126
tp1297
a(I4
g124
tp1298
a(I0
g192
tp1299
a(I1
g124
tp1300
a(I2
g128
tp1301
a(I3
g192
tp1302
a(I4
g124
tp1303
a(I0
g192
tp1304
a(I1
g124
tp1305
a(I2
g128
tp1306
a(I3
g192
tp1307
a(I4
g124
tp1308
a(I0
g192
tp1309
a(I1
g124
tp1310
a(I2
g128
tp1311
a(I3
g192
tp1312
a(I4
g124
tp1313
a(I0
g124
tp1314
a(I1
g128
tp1315
a(I2
g126
tp1316
a(I3
g192
tp1317
a(I4
g124
tp1318
a(I0
g124
tp1319
a(I1
g128
tp1320
a(I2
g126
tp1321
a(I3
g192
tp1322
a(I4
g124
tp1323
a(I0
g124
tp1324
a(I1
g128
tp1325
a(I2
g126
tp1326
a(I3
g192
tp1327
a(I4
g124
tp1328
a(I0
g124
tp1329
a(I1
g126
tp1330
a(I2
g128
tp1331
a(I3
g124
tp1332
a(I4
g128
tp1333
a(I0
g124
tp1334
a(I1
g126
tp1335
a(I2
g128
tp1336
a(I3
g124
tp1337
a(I4
g128
tp1338
a(I0
g124
tp1339
a(I1
g126
tp1340
a(I2
g128
tp1341
a(I3
g124
tp1342
a(I4
g126
tp1343
a(I0
g192
tp1344
a(I1
g128
tp1345
a(I2
g126
tp1346
a(I3
g128
tp1347
a(I4
g126
tp1348
a(I0
g192
tp1349
a(I1
g128
tp1350
a(I2
g126
tp1351
a(I3
g128
tp1352
a(I4
g126
tp1353
a(I0
g192
tp1354
a(I1
g128
tp1355
a(I2
g126
tp1356
a(I3
g128
tp1357
a(I4
g128
tp1358
a(I0
g126
tp1359
a(I1
g126
tp1360
a(I2
g192
tp1361
a(I3
g124
tp1362
a(I4
g128
tp1363
a(I0
g126
tp1364
a(I1
g126
tp1365
a(I2
g192
tp1366
a(I3
g124
tp1367
a(I4
g128
tp1368
a(I0
g124
tp1369
a(I1
g126
tp1370
a(I2
g192
tp1371
a(I3
g128
tp1372
a(I4
g124
tp1373
a(I0
g124
tp1374
a(I1
g128
tp1375
a(I2
g126
tp1376
a(I3
g128
tp1377
a(I4
g124
tp1378
a(I0
g124
tp1379
a(I1
g128
tp1380
a(I2
g126
tp1381
a(I3
g128
tp1382
a(I4
g124
tp1383
a(I0
g124
tp1384
a(I1
g128
tp1385
a(I2
g126
tp1386
a(I3
g126
tp1387
a(I4
g124
tp1388
a(I0
g124
tp1389
a(I1
g128
tp1390
a(I2
g126
tp1391
a(I3
g126
tp1392
a(I4
g124
tp1393
a(I0
g124
tp1394
a(I1
g124
tp1395
a(I2
g126
tp1396
a(I3
g126
tp1397
a(I4
g124
tp1398
a(I0
g124
tp1399
a(I1
g124
tp1400
a(I2
g128
tp1401
a(I3
g126
tp1402
a(I4
g128
tp1403
a(I0
g124
tp1404
a(I1
g124
tp1405
a(I2
g128
tp1406
a(I3
g126
tp1407
a(I4
g128
tp1408
a(I0
g192
tp1409
a(I1
g124
tp1410
a(I2
g128
tp1411
a(I3
g192
tp1412
a(I4
g128
tp1413
a(I0
g192
tp1414
a(I1
g124
tp1415
a(I2
g128
tp1416
a(I3
g192
tp1417
a(I4
g124
tp1418
a(I0
g192
tp1419
a(I1
g124
tp1420
a(I2
g128
tp1421
a(I3
g192
tp1422
a(I4
g124
tp1423
a(I0
g126
tp1424
a(I1
g192
tp1425
a(I2
g128
tp1426
a(I3
g192
tp1427
a(I4
g124
tp1428
a(I0
g126
tp1429
a(I1
g192
tp1430
a(I2
g128
tp1431
a(I3
g192
tp1432
a(I4
g124
tp1433
a(I0
g124
tp1434
a(I1
g192
tp1435
a(I2
g124
tp1436
a(I3
g192
tp1437
a(I4
g128
tp1438
a(I0
g126
tp1439
a(I1
g192
tp1440
a(I2
g124
tp1441
a(I3
g124
tp1442
a(I4
g128
tp1443
a(I0
g126
tp1444
a(I1
g124
tp1445
a(I2
g124
tp1446
a(I3
g124
tp1447
a(I4
g126
tp1448
a(I0
g192
tp1449
a(I1
g124
tp1450
a(I2
g124
tp1451
a(I3
g124
tp1452
a(I4
g126
tp1453
a(I0
g192
tp1454
a(I1
g124
tp1455
a(I2
g124
tp1456
a(I3
g128
tp1457
a(I4
g126
tp1458
a(I0
g126
tp1459
a(I1
g128
tp1460
a(I2
g192
tp1461
a(I3
g128
tp1462
a(I4
g126
tp1463
a(I0
g126
tp1464
a(I1
g128
tp1465
a(I2
g192
tp1466
a(I3
g128
tp1467
a(I4
g126
tp1468
a(I0
g126
tp1469
a(I1
g128
tp1470
a(I2
g192
tp1471
a(I3
g124
tp1472
a(I4
g126
tp1473
a(I0
g126
tp1474
a(I1
g128
tp1475
a(I2
g192
tp1476
a(I3
g124
tp1477
a(I4
g126
tp1478
a(I0
g126
tp1479
a(I1
g124
tp1480
a(I2
g124
tp1481
a(I3
g128
tp1482
a(I4
g126
tp1483
a(I0
g126
tp1484
a(I1
g124
tp1485
a(I2
g124
tp1486
a(I3
g128
tp1487
a(I4
g126
tp1488
a(I0
g126
tp1489
a(I1
g124
tp1490
a(I2
g124
tp1491
a(I3
g128
tp1492
a(I4
g126
tp1493
a(I0
g126
tp1494
a(I1
g124
tp1495
a(I2
g192
tp1496
a(I3
g126
tp1497
a(I4
g126
tp1498
a(I0
g126
tp1499
a(I1
g124
tp1500
a(I2
g192
tp1501
a(I3
g126
tp1502
a(I4
g192
tp1503
a(I0
g167
tp1504
a(I1
g124
tp1505
a(I2
g192
tp1506
a(I3
g126
tp1507
a(I4
g192
tp1508
a(I0
g126
tp1509
a(I1
g192
tp1510
a(I2
g124
tp1511
a(I3
g126
tp1512
a(I4
g124
tp1513
a(I0
g126
tp1514
a(I1
g192
tp1515
a(I2
g124
tp1516
a(I3
g126
tp1517
a(I4
g124
tp1518
a(I0
g124
tp1519
a(I1
g192
tp1520
a(I2
g124
tp1521
a(I3
g126
tp1522
a(I4
g124
tp1523
a(I0
g126
tp1524
a(I1
g192
tp1525
a(I2
g192
tp1526
a(I3
g126
tp1527
a(I4
g124
tp1528
a(I0
g126
tp1529
a(I1
g126
tp1530
a(I2
g192
tp1531
a(I3
g126
tp1532
a(I4
g192
tp1533
a(I0
g126
tp1534
a(I1
g126
tp1535
a(I2
g192
tp1536
a(I3
g126
tp1537
a(I4
g192
tp1538
a(I0
g126
tp1539
a(I1
g126
tp1540
a(I2
g126
tp1541
a(I3
g126
tp1542
a(I4
g192
tp1543
a(I0
g128
tp1544
a(I1
g126
tp1545
a(I2
g126
tp1546
a(I3
g126
tp1547
a(I4
g126
tp1548
a(I0
g128
tp1549
a(I1
g126
tp1550
a(I2
g126
tp1551
a(I3
g192
tp1552
a(I4
g126
tp1553
a(I0
g192
tp1554
a(I1
g126
tp1555
a(I2
g126
tp1556
a(I3
g192
tp1557
a(I4
g126
tp1558
a(I0
g128
tp1559
a(I1
g128
tp1560
a(I2
g192
tp1561
a(I3
g192
tp1562
a(I4
g192
tp1563
a(I0
g124
tp1564
a(I1
g128
tp1565
a(I2
g192
tp1566
a(I3
g126
tp1567
a(I4
g192
tp1568
a(I0
g124
tp1569
a(I1
g128
tp1570
a(I2
g192
tp1571
a(I3
g126
tp1572
a(I4
g192
tp1573
a(I0
g124
tp1574
a(I1
g128
tp1575
a(I2
g192
tp1576
a(I3
g126
tp1577
a(I4
g124
tp1578
a(I0
g124
tp1579
a(I1
g124
tp1580
a(I2
g192
tp1581
a(I3
g128
tp1582
a(I4
g124
tp1583
a(I0
g124
tp1584
a(I1
g124
tp1585
a(I2
g192
tp1586
a(I3
g128
tp1587
a(I4
g124
tp1588
a(I0
g128
tp1589
a(I1
g124
tp1590
a(I2
g124
tp1591
a(I3
g128
tp1592
a(I4
g192
tp1593
a(I0
g128
tp1594
a(I1
g124
tp1595
a(I2
g124
tp1596
a(I3
g126
tp1597
a(I4
g192
tp1598
a(I0
g128
tp1599
a(I1
g124
tp1600
a(I2
g124
tp1601
a(I3
g126
tp1602
a(I4
g126
tp1603
a(I0
g124
tp1604
a(I1
g124
tp1605
a(I2
g124
tp1606
a(I3
g126
tp1607
a(I4
g126
tp1608
a(I0
g124
tp1609
a(I1
g192
tp1610
a(I2
g192
tp1611
a(I3
g126
tp1612
a(I4
g126
tp1613
a(I0
g124
tp1614
a(I1
g192
tp1615
a(I2
g192
tp1616
a(I3
g126
tp1617
a(I4
g126
tp1618
a(I0
g192
tp1619
a(I1
g192
tp1620
a(I2
g192
tp1621
a(I3
g126
tp1622
a(I4
g126
tp1623
a(I0
g192
tp1624
a(I1
g192
tp1625
a(I2
g126
tp1626
a(I3
g126
tp1627
a(I4
g126
tp1628
a(I0
g192
tp1629
a(I1
g126
tp1630
a(I2
g126
tp1631
a(I3
g126
tp1632
a(I4
g126
tp1633
a(I0
g124
tp1634
a(I1
g126
tp1635
a(I2
g126
tp1636
a(I3
g126
tp1637
a(I4
g126
tp1638
a(I0
g124
tp1639
a(I1
g126
tp1640
a(I2
g126
tp1641
a(I3
g126
tp1642
a(I4
g126
tp1643
a(I0
g124
tp1644
a(I1
g192
tp1645
a(I2
g126
tp1646
a(I3
g126
tp1647
a(I4
g126
tp1648
a(I0
g192
tp1649
a(I1
g192
tp1650
a(I2
g126
tp1651
a(I3
g192
tp1652
a(I4
g126
tp1653
a(I0
g128
tp1654
a(I1
g192
tp1655
a(I2
g128
tp1656
a(I3
g192
tp1657
a(I4
g128
tp1658
a(I0
g126
tp1659
a(I1
g126
tp1660
a(I2
g128
tp1661
a(I3
g192
tp1662
a(I4
g128
tp1663
a(I0
g126
tp1664
a(I1
g126
tp1665
a(I2
g128
tp1666
a(I3
g124
tp1667
a(I4
g124
tp1668
a(I0
g126
tp1669
a(I1
g126
tp1670
a(I2
g128
tp1671
a(I3
g124
tp1672
a(I4
g124
tp1673
a(I0
g128
tp1674
a(I1
g192
tp1675
a(I2
g128
tp1676
a(I3
g192
tp1677
a(I4
g128
tp1678
a(I0
g128
tp1679
a(I1
g192
tp1680
a(I2
g128
tp1681
a(I3
g192
tp1682
a(I4
g128
tp1683
a(I0
g128
tp1684
a(I1
g192
tp1685
a(I2
g128
tp1686
a(I3
g192
tp1687
a(I4
g128
tp1688
a(I0
g126
tp1689
a(I1
g126
tp1690
a(I2
g126
tp1691
a(I3
g124
tp1692
a(I4
g126
tp1693
a(I0
g126
tp1694
a(I1
g126
tp1695
a(I2
g126
tp1696
a(I3
g124
tp1697
a(I4
g126
tp1698
a(I0
g126
tp1699
a(I1
g126
tp1700
a(I2
g126
tp1701
a(I3
g124
tp1702
a(I4
g128
tp1703
a(I0
g128
tp1704
a(I1
g128
tp1705
a(I2
g126
tp1706
a(I3
g128
tp1707
a(I4
g128
tp1708
a(I0
g128
tp1709
a(I1
g128
tp1710
a(I2
g126
tp1711
a(I3
g128
tp1712
a(I4
g128
tp1713
a(I0
g128
tp1714
a(I1
g128
tp1715
a(I2
g124
tp1716
a(I3
g128
tp1717
a(I4
g124
tp1718
a(I0
g126
tp1719
a(I1
g126
tp1720
a(I2
g124
tp1721
a(I3
g128
tp1722
a(I4
g124
tp1723
a(I0
g167
tp1724
a(I1
g126
tp1725
a(I2
g124
tp1726
a(I3
g128
tp1727
a(I4
g124
tp1728
a(I0
g126
tp1729
as.