(dp1
S'layout'
p2
(ilayout
Layout
p3
(dp4
S'capsules'
p5
(lp6
(I1
I6
tp7
a(I26
I6
tp8
a(I1
I23
tp9
a(I26
I23
tp10
asS'numGhosts'
p11
I4
sS'food'
p12
(igame
Grid
p13
(dp14
S'CELLS_PER_INT'
p15
I30
sS'width'
p16
I28
sS'data'
p17
(lp18
(lp19
I00
aI00
aI00
aI00
aI00
aI00
aI00
aI00
aI00
aI00
aI00
aI00
aI00
aI00
aI00
aI00
aI00
aI00
aI00
aI00
aI00
aI00
aI00
aI00
aI00
aI00
aI00
aa(lp20
I00
aI01
aI01
aI01
aI00
aI00
aI00
aI01
aI01
aI01
aI00
aI00
aI00
aI00
aI00
aI00
aI00
aI00
aI01
aI01
aI01
aI01
aI01
aI00
aI01
aI01
aI00
aa(lp21
I00
aI01
aI00
aI01
aI00
aI00
aI01
aI00
aI00
aI01
aI00
aI00
aI00
aI00
aI00
aI00
aI00
aI00
aI01
aI00
aI00
aI01
aI00
aI00
aI00
aI01
aI00
aa(lp22
I00
aI01
aI00
aI01
aI01
aI01
aI01
aI00
aI00
aI01
aI00
aI00
aI00
aI00
aI00
aI00
aI00
aI00
aI01
aI00
aI00
aI01
aI00
aI00
aI00
aI01
aI00
aa(lp23
I00
aI01
aI00
aI01
aI00
aI00
aI00
aI00
aI00
aI01
aI00
aI00
aI00
aI00
aI00
aI00
aI00
aI00
aI01
aI00
aI00
aI01
aI00
aI00
aI00
aI01
aI00
aa(lp24
I00
aI01
aI00
aI01
aI00
aI00
aI00
aI00
aI00
aI01
aI00
aI00
aI00
aI00
aI00
aI00
aI00
aI00
aI01
aI00
aI00
aI01
aI00
aI00
aI00
aI01
aI00
aa(lp25
I00
aI01
aI00
aI01
aI01
aI01
aI01
aI01
aI01
aI01
aI01
aI01
aI01
aI01
aI01
aI01
aI01
aI01
aI01
aI01
aI01
aI01
aI01
aI01
aI01
aI01
aI00
aa(lp26
I00
aI01
aI00
aI00
aI00
aI00
aI01
aI00
aI00
aI01
aI00
aI00
aI00
aI00
aI00
aI00
aI00
aI00
aI00
aI00
aI00
aI01
aI00
aI00
aI00
aI01
aI00
aa(lp27
I00
aI01
aI00
aI00
aI00
aI00
aI01
aI00
aI00
aI01
aI00
aI00
aI00
aI00
aI00
aI00
aI00
aI00
aI00
aI00
aI00
aI01
aI00
aI00
aI00
aI01
aI00
aa(lp28
I00
aI01
aI00
aI01
aI01
aI01
aI01
aI00
aI00
aI01
aI00
aI00
aI00
aI00
aI00
aI00
aI00
aI00
aI01
aI01
aI01
aI01
aI00
aI00
aI00
aI01
aI00
aa(lp29
I00
aI01
aI00
aI01
aI00
aI00
aI01
aI00
aI00
aI01
aI00
aI00
aI00
aI00
aI00
aI00
aI00
aI00
aI01
aI00
aI00
aI01
aI00
aI00
aI00
aI01
aI00
aa(lp30
I00
aI01
aI00
aI01
aI00
aI00
aI01
aI00
aI00
aI01
aI00
aI00
aI00
aI00
aI00
aI00
aI00
aI00
aI01
aI00
aI00
aI01
aI00
aI00
aI00
aI01
aI00
aa(lp31
I00
aI01
aI01
aI01
aI00
aI00
aI01
aI01
aI01
aI01
aI00
aI00
aI00
aI00
aI00
aI00
aI00
aI00
aI01
aI00
aI00
aI01
aI01
aI01
aI01
aI01
aI00
aa(lp32
I00
aI01
aI00
aI00
aI00
aI00
aI00
aI00
aI00
aI00
aI00
aI00
aI00
aI00
aI00
aI00
aI00
aI00
aI00
aI00
aI00
aI01
aI00
aI00
aI00
aI00
aI00
aa(lp33
I00
aI00
aI00
aI00
aI00
aI00
aI00
aI00
aI00
aI00
aI00
aI00
aI00
aI00
aI00
aI00
aI00
aI00
aI00
aI00
aI00
aI01
aI00
aI00
aI00
aI00
aI00
aa(lp34
I00
aI01
aI01
aI01
aI00
aI00
aI01
aI01
aI01
aI01
aI00
aI00
aI00
aI00
aI00
aI00
aI00
aI00
aI01
aI00
aI00
aI01
aI01
aI01
aI01
aI01
aI00
aa(lp35
I00
aI01
aI00
aI01
aI00
aI00
aI01
aI00
aI00
aI01
aI00
aI00
aI00
aI00
aI00
aI00
aI00
aI00
aI01
aI00
aI00
aI01
aI00
aI00
aI00
aI01
aI00
aa(lp36
I00
aI01
aI00
aI01
aI00
aI00
aI01
aI00
aI00
aI01
aI00
aI00
aI00
aI00
aI00
aI00
aI00
aI00
aI01
aI00
aI00
aI01
aI00
aI00
aI00
aI01
aI00
aa(lp37
I00
aI01
aI00
aI01
aI01
aI01
aI01
aI00
aI00
aI01
aI00
aI00
aI00
aI00
aI00
aI00
aI00
aI00
aI01
aI01
aI01
aI01
aI00
aI00
aI00
aI01
aI00
aa(lp38
I00
aI01
aI00
aI00
aI00
aI00
aI01
aI00
aI00
aI01
aI00
aI00
aI00
aI00
aI00
aI00
aI00
aI00
aI00
aI00
aI00
aI01
aI00
aI00
aI00
aI01
aI00
aa(lp39
I00
aI01
aI00
aI00
aI00
aI00
aI01
aI00
aI00
aI01
aI00
aI00
aI00
aI00
aI00
aI00
aI00
aI00
aI00
aI00
aI00
aI01
aI00
aI00
aI00
aI01
aI00
aa(lp40
I00
aI01
aI00
aI01
aI01
aI01
aI01
aI01
aI01
aI01
aI01
aI01
aI01
aI01
aI01
aI01
aI01
aI01
aI01
aI01
aI01
aI01
aI01
aI01
aI01
aI01
aI00
aa(lp41
I00
aI01
aI00
aI01
aI00
aI00
aI00
aI00
aI00
aI01
aI00
aI00
aI00
aI00
aI00
aI00
aI00
aI00
aI01
aI00
aI00
aI01
aI00
aI00
aI00
aI01
aI00
aa(lp42
I00
aI01
aI00
aI01
aI00
aI00
aI00
aI00
aI00
aI01
aI00
aI00
aI00
aI00
aI00
aI00
aI00
aI00
aI01
aI00
aI00
aI01
aI00
aI00
aI00
aI01
aI00
aa(lp43
I00
aI01
aI00
aI01
aI01
aI01
aI01
aI00
aI00
aI01
aI00
aI00
aI00
aI00
aI00
aI00
aI00
aI00
aI01
aI00
aI00
aI01
aI00
aI00
aI00
aI01
aI00
aa(lp44
I00
aI01
aI00
aI01
aI00
aI00
aI01
aI00
aI00
aI01
aI00
aI00
aI00
aI00
aI00
aI00
aI00
aI00
aI01
aI00
aI00
aI01
aI00
aI00
aI00
aI01
aI00
aa(lp45
I00
aI01
aI01
aI01
aI00
aI00
aI00
aI01
aI01
aI01
aI00
aI00
aI00
aI00
aI00
aI00
aI00
aI00
aI01
aI01
aI01
aI01
aI01
aI00
aI01
aI01
aI00
aa(lp46
I00
aI00
aI00
aI00
aI00
aI00
aI00
aI00
aI00
aI00
aI00
aI00
aI00
aI00
aI00
aI00
aI00
aI00
aI00
aI00
aI00
aI00
aI00
aI00
aI00
aI00
aI00
aasS'height'
p47
I27
sbsS'agentPositions'
p48
(lp49
(I01
(I14
I1
tp50
tp51
a(I00
(I10
I13
tp52
tp53
a(I00
(I13
I13
tp54
tp55
a(I00
(I14
I13
tp56
tp57
a(I00
(I17
I13
tp58
tp59
asg47
I27
sg16
I28
sS'walls'
p60
(igame
Grid
p61
(dp62
g15
I30
sg16
I28
sg17
(lp63
(lp64
I01
aI01
aI01
aI01
aI01
aI01
aI01
aI01
aI01
aI01
aI01
aI01
aI01
aI01
aI01
aI01
aI01
aI01
aI01
aI01
aI01
aI01
aI01
aI01
aI01
aI01
aI01
aa(lp65
I01
aI00
aI00
aI00
aI01
aI01
aI00
aI00
aI00
aI00
aI01
aI01
aI01
aI00
aI01
aI01
aI01
aI01
aI00
aI00
aI00
aI00
aI00
aI00
aI00
aI00
aI01
aa(lp66
I01
aI00
aI01
aI00
aI01
aI01
aI00
aI01
aI01
aI00
aI01
aI01
aI01
aI00
aI01
aI01
aI01
aI01
aI00
aI01
aI01
aI00
aI01
aI01
aI01
aI00
aI01
aa(lp67
I01
aI00
aI01
aI00
aI00
aI00
aI00
aI01
aI01
aI00
aI01
aI01
aI01
aI00
aI01
aI01
aI01
aI01
aI00
aI01
aI01
aI00
aI01
aI01
aI01
aI00
aI01
aa(lp68
I01
aI00
aI01
aI00
aI01
aI01
aI01
aI01
aI01
aI00
aI01
aI01
aI01
aI00
aI01
aI01
aI01
aI01
aI00
aI01
aI01
aI00
aI01
aI01
aI01
aI00
aI01
aa(lp69
I01
aI00
aI01
aI00
aI01
aI01
aI01
aI01
aI01
aI00
aI01
aI01
aI01
aI00
aI01
aI01
aI01
aI01
aI00
aI01
aI01
aI00
aI01
aI01
aI01
aI00
aI01
aa(lp70
I01
aI00
aI01
aI00
aI00
aI00
aI00
aI00
aI00
aI00
aI00
aI00
aI00
aI00
aI00
aI00
aI00
aI00
aI00
aI00
aI00
aI00
aI00
aI00
aI00
aI00
aI01
aa(lp71
I01
aI00
aI01
aI01
aI01
aI01
aI00
aI01
aI01
aI00
aI01
aI01
aI01
aI00
aI01
aI01
aI01
aI01
aI01
aI01
aI01
aI00
aI01
aI01
aI01
aI00
aI01
aa(lp72
I01
aI00
aI01
aI01
aI01
aI01
aI00
aI01
aI01
aI00
aI00
aI00
aI00
aI00
aI00
aI00
aI01
aI01
aI01
aI01
aI01
aI00
aI01
aI01
aI01
aI00
aI01
aa(lp73
I01
aI00
aI01
aI00
aI00
aI00
aI00
aI01
aI01
aI00
aI01
aI00
aI01
aI01
aI01
aI00
aI01
aI01
aI00
aI00
aI00
aI00
aI01
aI01
aI01
aI00
aI01
aa(lp74
I01
aI00
aI01
aI00
aI01
aI01
aI00
aI01
aI01
aI00
aI01
aI00
aI01
aI00
aI01
aI00
aI01
aI01
aI00
aI01
aI01
aI00
aI01
aI01
aI01
aI00
aI01
aa(lp75
I01
aI00
aI01
aI00
aI01
aI01
aI00
aI01
aI01
aI00
aI01
aI00
aI01
aI00
aI01
aI00
aI01
aI01
aI00
aI01
aI01
aI00
aI01
aI01
aI01
aI00
aI01
aa(lp76
I01
aI00
aI00
aI00
aI01
aI01
aI00
aI00
aI00
aI00
aI01
aI00
aI01
aI00
aI01
aI00
aI00
aI00
aI00
aI01
aI01
aI00
aI00
aI00
aI00
aI00
aI01
aa(lp77
I01
aI00
aI01
aI01
aI01
aI01
aI00
aI01
aI01
aI01
aI01
aI00
aI01
aI00
aI00
aI00
aI01
aI01
aI01
aI01
aI01
aI00
aI01
aI01
aI01
aI01
aI01
aa(lp78
I01
aI00
aI01
aI01
aI01
aI01
aI00
aI01
aI01
aI01
aI01
aI00
aI01
aI00
aI00
aI00
aI01
aI01
aI01
aI01
aI01
aI00
aI01
aI01
aI01
aI01
aI01
aa(lp79
I01
aI00
aI00
aI00
aI01
aI01
aI00
aI00
aI00
aI00
aI01
aI00
aI01
aI00
aI01
aI00
aI00
aI00
aI00
aI01
aI01
aI00
aI00
aI00
aI00
aI00
aI01
aa(lp80
I01
aI00
aI01
aI00
aI01
aI01
aI00
aI01
aI01
aI00
aI01
aI00
aI01
aI00
aI01
aI00
aI01
aI01
aI00
aI01
aI01
aI00
aI01
aI01
aI01
aI00
aI01
aa(lp81
I01
aI00
aI01
aI00
aI01
aI01
aI00
aI01
aI01
aI00
aI01
aI00
aI01
aI00
aI01
aI00
aI01
aI01
aI00
aI01
aI01
aI00
aI01
aI01
aI01
aI00
aI01
aa(lp82
I01
aI00
aI01
aI00
aI00
aI00
aI00
aI01
aI01
aI00
aI01
aI00
aI01
aI01
aI01
aI00
aI01
aI01
aI00
aI00
aI00
aI00
aI01
aI01
aI01
aI00
aI01
aa(lp83
I01
aI00
aI01
aI01
aI01
aI01
aI00
aI01
aI01
aI00
aI00
aI00
aI00
aI00
aI00
aI00
aI01
aI01
aI01
aI01
aI01
aI00
aI01
aI01
aI01
aI00
aI01
aa(lp84
I01
aI00
aI01
aI01
aI01
aI01
aI00
aI01
aI01
aI00
aI01
aI01
aI01
aI00
aI01
aI01
aI01
aI01
aI01
aI01
aI01
aI00
aI01
aI01
aI01
aI00
aI01
aa(lp85
I01
aI00
aI01
aI00
aI00
aI00
aI00
aI00
aI00
aI00
aI00
aI00
aI00
aI00
aI00
aI00
aI00
aI00
aI00
aI00
aI00
aI00
aI00
aI00
aI00
aI00
aI01
aa(lp86
I01
aI00
aI01
aI00
aI01
aI01
aI01
aI01
aI01
aI00
aI01
aI01
aI01
aI00
aI01
aI01
aI01
aI01
aI00
aI01
aI01
aI00
aI01
aI01
aI01
aI00
aI01
aa(lp87
I01
aI00
aI01
aI00
aI01
aI01
aI01
aI01
aI01
aI00
aI01
aI01
aI01
aI00
aI01
aI01
aI01
aI01
aI00
aI01
aI01
aI00
aI01
aI01
aI01
aI00
aI01
aa(lp88
I01
aI00
aI01
aI00
aI00
aI00
aI00
aI01
aI01
aI00
aI01
aI01
aI01
aI00
aI01
aI01
aI01
aI01
aI00
aI01
aI01
aI00
aI01
aI01
aI01
aI00
aI01
aa(lp89
I01
aI00
aI01
aI00
aI01
aI01
aI00
aI01
aI01
aI00
aI01
aI01
aI01
aI00
aI01
aI01
aI01
aI01
aI00
aI01
aI01
aI00
aI01
aI01
aI01
aI00
aI01
aa(lp90
I01
aI00
aI00
aI00
aI01
aI01
aI00
aI00
aI00
aI00
aI01
aI01
aI01
aI00
aI01
aI01
aI01
aI01
aI00
aI00
aI00
aI00
aI00
aI00
aI00
aI00
aI01
aa(lp91
I01
aI01
aI01
aI01
aI01
aI01
aI01
aI01
aI01
aI01
aI01
aI01
aI01
aI01
aI01
aI01
aI01
aI01
aI01
aI01
aI01
aI01
aI01
aI01
aI01
aI01
aI01
aasg47
I27
sbsS'totalFood'
p92
I229
sS'layoutText'
p93
(lp94
S'%%%%%%%%%%%%%%%%%%%%%%%%%%%%'
p95
aS'%............%%............%'
p96
aS'%.%%%%.%%%%%.%%.%%%%%.%%%%.%'
p97
aS'%o%%%%.%%%%%.%%.%%%%%.%%%%o%'
p98
aS'%.%%%%.%%%%%.%%.%%%%%.%%%%.%'
p99
aS'%..........................%'
p100
aS'%.%%%%.%%.%%%%%%%%.%%.%%%%.%'
p101
aS'%.%%%%.%%.%%%%%%%%.%%.%%%%.%'
p102
aS'%......%%....%%....%%......%'
p103
aS'%%%%%%.%%%%% %% %%%%%.%%%%%%'
p104
aS'%%%%%%.%%%%% %% %%%%%.%%%%%%'
p105
aS'%%%%%%.%            %.%%%%%%'
p106
aS'%%%%%%.% %%%%  %%%% %.%%%%%%'
p107
aS'%     .  %G  GG  G%  .     %'
p108
aS'%%%%%%.% %%%%%%%%%% %.%%%%%%'
p109
aS'%%%%%%.%            %.%%%%%%'
p110
aS'%%%%%%.% %%%%%%%%%% %.%%%%%%'
p111
aS'%............%%............%'
p112
aS'%.%%%%.%%%%%.%%.%%%%%.%%%%.%'
p113
aS'%.%%%%.%%%%%.%%.%%%%%.%%%%.%'
p114
aS'%o..%%.......  .......%%..o%'
p115
aS'%%%.%%.%%.%%%%%%%%.%%.%%.%%%'
p116
aS'%%%.%%.%%.%%%%%%%%.%%.%%.%%%'
p117
aS'%......%%....%%....%%......%'
p118
aS'%.%%%%%%%%%%.%%.%%%%%%%%%%.%'
p119
aS'%.............P............%'
p120
aS'%%%%%%%%%%%%%%%%%%%%%%%%%%%%'
p121
asbsS'actions'
p122
(lp123
(I0
S'West'
p124
tp125
a(I1
S'East'
p126
tp127
a(I2
g124
tp128
a(I3
g126
tp129
a(I4
g124
tp130
a(I0
g124
tp131
a(I1
g126
tp132
a(I2
g124
tp133
a(I3
g126
tp134
a(I4
g124
tp135
a(I0
g124
tp136
a(I1
g126
tp137
a(I2
g124
tp138
a(I3
g126
tp139
a(I4
g124
tp140
a(I0
g124
tp141
a(I1
S'North'
p142
tp143
a(I2
g126
tp144
a(I3
g124
tp145
a(I4
g142
tp146
a(I0
g126
tp147
a(I1
g142
tp148
a(I2
g126
tp149
a(I3
g124
tp150
a(I4
g124
tp151
a(I0
g124
tp152
a(I1
g124
tp153
a(I2
g126
tp154
a(I3
g124
tp155
a(I4
S'South'
p156
tp157
a(I0
g124
tp158
a(I1
g124
tp159
a(I2
g142
tp160
a(I3
g124
tp161
a(I4
g124
tp162
a(I0
g124
tp163
a(I1
g124
tp164
a(I2
g126
tp165
a(I3
g142
tp166
a(I4
g124
tp167
a(I0
g124
tp168
a(I1
g124
tp169
a(I2
g142
tp170
a(I3
g126
tp171
a(I4
g124
tp172
a(I0
g124
tp173
a(I1
g124
tp174
a(I2
g126
tp175
a(I3
g156
tp176
a(I4
g126
tp177
a(I0
g124
tp178
a(I1
g156
tp179
a(I2
g142
tp180
a(I3
g126
tp181
a(I4
g126
tp182
a(I0
g124
tp183
a(I1
g156
tp184
a(I2
g142
tp185
a(I3
g126
tp186
a(I4
g126
tp187
a(I0
g124
tp188
a(I1
g124
tp189
a(I2
g142
tp190
a(I3
g126
tp191
a(I4
g142
tp192
a(I0
g124
tp193
a(I1
g124
tp194
a(I2
g126
tp195
a(I3
g124
tp196
a(I4
g142
tp197
a(I0
g124
tp198
a(I1
g156
tp199
a(I2
g126
tp200
a(I3
g124
tp201
a(I4
g124
tp202
a(I0
g142
tp203
a(I1
g156
tp204
a(I2
g126
tp205
a(I3
g124
tp206
a(I4
g142
tp207
a(I0
g142
tp208
a(I1
g156
tp209
a(I2
g142
tp210
a(I3
g142
tp211
a(I4
g142
tp212
a(I0
g126
tp213
a(I1
g156
tp214
a(I2
g142
tp215
a(I3
g124
tp216
a(I4
g142
tp217
a(I0
g126
tp218
a(I1
g124
tp219
a(I2
g142
tp220
a(I3
g156
tp221
a(I4
g124
tp222
a(I0
g126
tp223
a(I1
g124
tp224
a(I2
g126
tp225
a(I3
g124
tp226
a(I4
g124
tp227
a(I0
g126
tp228
a(I1
g124
tp229
a(I2
g126
tp230
a(I3
g124
tp231
a(I4
g124
tp232
a(I0
g126
tp233
a(I1
g124
tp234
a(I2
g126
tp235
a(I3
g124
tp236
a(I4
g142
tp237
a(I0
g142
tp238
a(I1
g124
tp239
a(I2
g156
tp240
a(I3
g126
tp241
a(I4
g142
tp242
a(I0
g142
tp243
a(I1
g156
tp244
a(I2
g156
tp245
a(I3
g126
tp246
a(I4
g142
tp247
a(I0
g142
tp248
a(I1
g156
tp249
a(I2
g156
tp250
a(I3
g126
tp251
a(I4
g124
tp252
a(I0
S'Stop'
p253
tp254
a(I1
g156
tp255
a(I2
g156
tp256
a(I3
g142
tp257
a(I4
g124
tp258
a(I0
g142
tp259
a(I1
g126
tp260
a(I2
g156
tp261
a(I3
g126
tp262
a(I4
g124
tp263
a(I0
g142
tp264
a(I1
g126
tp265
a(I2
g156
tp266
a(I3
g156
tp267
a(I4
g156
tp268
a(I0
g142
tp269
a(I1
g156
tp270
a(I2
g156
tp271
a(I3
g126
tp272
a(I4
g156
tp273
a(I0
g124
tp274
a(I1
g156
tp275
a(I2
g156
tp276
a(I3
g126
tp277
a(I4
g156
tp278
a(I0
g124
tp279
a(I1
g156
tp280
a(I2
g156
tp281
a(I3
g126
tp282
a(I4
g124
tp283
a(I0
g124
tp284
a(I1
g124
tp285
a(I2
g156
tp286
a(I3
g124
tp287
a(I4
g124
tp288
a(I0
g124
tp289
a(I1
g124
tp290
a(I2
g156
tp291
a(I3
g124
tp292
a(I4
g124
tp293
a(I0
g124
tp294
a(I1
g156
tp295
a(I2
g156
tp296
a(I3
g124
tp297
a(I4
g124
tp298
a(I0
g156
tp299
a(I1
g156
tp300
a(I2
g156
tp301
a(I3
g124
tp302
a(I4
g124
tp303
a(I0
g156
tp304
a(I1
g126
tp305
a(I2
g156
tp306
a(I3
g142
tp307
a(I4
g142
tp308
a(I0
g156
tp309
a(I1
g126
tp310
a(I2
g156
tp311
a(I3
g126
tp312
a(I4
g142
tp313
a(I0
g126
tp314
a(I1
g126
tp315
a(I2
g156
tp316
a(I3
g126
tp317
a(I4
g142
tp318
a(I0
g126
tp319
a(I1
g126
tp320
a(I2
g156
tp321
a(I3
g156
tp322
a(I4
g142
tp323
a(I0
g156
tp324
a(I1
g126
tp325
a(I2
g156
tp326
a(I3
g156
tp327
a(I4
g142
tp328
a(I0
g156
tp329
a(I1
g126
tp330
a(I2
g156
tp331
a(I3
g126
tp332
a(I4
g126
tp333
a(I0
g156
tp334
a(I1
g126
tp335
a(I2
g156
tp336
a(I3
g126
tp337
a(I4
g126
tp338
a(I0
g126
tp339
a(I1
g126
tp340
a(I2
g156
tp341
a(I3
g126
tp342
a(I4
g126
tp343
a(I0
g126
tp344
a(I1
g126
tp345
a(I2
g156
tp346
a(I3
g126
tp347
a(I4
g126
tp348
a(I0
g126
tp349
a(I1
g126
tp350
a(I2
g126
tp351
a(I3
g126
tp352
a(I4
g126
tp353
a(I0
g142
tp354
a(I1
g126
tp355
a(I2
g126
tp356
a(I3
g126
tp357
a(I4
g126
tp358
a(I0
g142
tp359
a(I1
g126
tp360
a(I2
g126
tp361
a(I3
g124
tp362
a(I4
g126
tp363
a(I0
g142
tp364
a(I1
g126
tp365
a(I2
g126
tp366
a(I3
g124
tp367
a(I4
g126
tp368
a(I0
g126
tp369
a(I1
g126
tp370
a(I2
g126
tp371
a(I3
g124
tp372
a(I4
g126
tp373
a(I0
g126
tp374
a(I1
g126
tp375
a(I2
g126
tp376
a(I3
g124
tp377
a(I4
g126
tp378
a(I0
g126
tp379
a(I1
g126
tp380
a(I2
g126
tp381
a(I3
g124
tp382
a(I4
g142
tp383
a(I0
g126
tp384
a(I1
g126
tp385
a(I2
g126
tp386
a(I3
g124
tp387
a(I4
g142
tp388
a(I0
g126
tp389
a(I1
g126
tp390
a(I2
g126
tp391
a(I3
g142
tp392
a(I4
g142
tp393
a(I0
g126
tp394
a(I1
g126
tp395
a(I2
g126
tp396
a(I3
g142
tp397
a(I4
g142
tp398
a(I0
g142
tp399
a(I1
g126
tp400
a(I2
g156
tp401
a(I3
g124
tp402
a(I4
g142
tp403
a(I0
g142
tp404
a(I1
g126
tp405
a(I2
g156
tp406
a(I3
g124
tp407
a(I4
g142
tp408
a(I0
g142
tp409
a(I1
g126
tp410
a(I2
g156
tp411
a(I3
g142
tp412
a(I4
g142
tp413
a(I0
g124
tp414
a(I1
g126
tp415
a(I2
g156
tp416
a(I3
g142
tp417
a(I4
g142
tp418
a(I0
g124
tp419
a(I1
g126
tp420
a(I2
g124
tp421
a(I3
g124
tp422
a(I4
g126
tp423
a(I0
g124
tp424
a(I1
g126
tp425
a(I2
g124
tp426
a(I3
g124
tp427
a(I4
g126
tp428
a(I0
g124
tp429
a(I1
g126
tp430
a(I2
g124
tp431
a(I3
g124
tp432
a(I4
g126
tp433
a(I0
g124
tp434
a(I1
g126
tp435
a(I2
g124
tp436
a(I3
g124
tp437
a(I4
g126
tp438
a(I0
g126
tp439
a(I1
g142
tp440
a(I2
g124
tp441
a(I3
g124
tp442
a(I4
g126
tp443
a(I0
g124
tp444
a(I1
g142
tp445
a(I2
g124
tp446
a(I3
g124
tp447
a(I4
g126
tp448
a(I0
g124
tp449
a(I1
g142
tp450
a(I2
g124
tp451
a(I3
g124
tp452
a(I4
g126
tp453
a(I0
g142
tp454
a(I1
g142
tp455
a(I2
g124
tp456
a(I3
g124
tp457
a(I4
g126
tp458
a(I0
g142
tp459
a(I1
g126
tp460
a(I2
g124
tp461
a(I3
g124
tp462
a(I4
g126
tp463
a(I0
g253
tp464
a(I1
g126
tp465
a(I2
g124
tp466
a(I3
g124
tp467
a(I4
g126
tp468
a(I0
g142
tp469
a(I1
g126
tp470
a(I2
g124
tp471
a(I3
g156
tp472
a(I4
g126
tp473
a(I0
g142
tp474
a(I1
g126
tp475
a(I2
g124
tp476
a(I3
g156
tp477
a(I4
g126
tp478
a(I0
g142
tp479
a(I1
g126
tp480
a(I2
g124
tp481
a(I3
g156
tp482
a(I4
g156
tp483
a(I0
g142
tp484
a(I1
g126
tp485
a(I2
g124
tp486
a(I3
g156
tp487
a(I4
g156
tp488
a(I0
g142
tp489
a(I1
g142
tp490
a(I2
g124
tp491
a(I3
g156
tp492
a(I4
g156
tp493
a(I0
g142
tp494
a(I1
g142
tp495
a(I2
g124
tp496
a(I3
g156
tp497
a(I4
g156
tp498
a(I0
g142
tp499
a(I1
g142
tp500
a(I2
g124
tp501
a(I3
g156
tp502
a(I4
g156
tp503
a(I0
g124
tp504
a(I1
g142
tp505
a(I2
g124
tp506
a(I3
g156
tp507
a(I4
g156
tp508
a(I0
g124
tp509
a(I1
g142
tp510
a(I2
g124
tp511
a(I3
g156
tp512
a(I4
g156
tp513
a(I0
g124
tp514
a(I1
g124
tp515
a(I2
g124
tp516
a(I3
g156
tp517
a(I4
g126
tp518
a(I0
g124
tp519
a(I1
g124
tp520
a(I2
g142
tp521
a(I3
g124
tp522
a(I4
g126
tp523
a(I0
g124
tp524
a(I1
g124
tp525
a(I2
g142
tp526
a(I3
g124
tp527
a(I4
g126
tp528
a(I0
g142
tp529
a(I1
g124
tp530
a(I2
g126
tp531
a(I3
g124
tp532
a(I4
g126
tp533
a(I0
g142
tp534
a(I1
g124
tp535
a(I2
g126
tp536
a(I3
g124
tp537
a(I4
g126
tp538
a(I0
g142
tp539
a(I1
g124
tp540
a(I2
g126
tp541
a(I3
g124
tp542
a(I4
g126
tp543
a(I0
g142
tp544
a(I1
g142
tp545
a(I2
g142
tp546
a(I3
g124
tp547
a(I4
g126
tp548
a(I0
g142
tp549
a(I1
g142
tp550
a(I2
g142
tp551
a(I3
g124
tp552
a(I4
g126
tp553
a(I0
g142
tp554
a(I1
g142
tp555
a(I2
g142
tp556
a(I3
g124
tp557
a(I4
g126
tp558
a(I0
g142
tp559
a(I1
g142
tp560
a(I2
g142
tp561
a(I3
g156
tp562
a(I4
g126
tp563
a(I0
g126
tp564
a(I1
g142
tp565
a(I2
g142
tp566
a(I3
g156
tp567
a(I4
g126
tp568
a(I0
g126
tp569
a(I1
g124
tp570
a(I2
g124
tp571
a(I3
g156
tp572
a(I4
g126
tp573
a(I0
g126
tp574
a(I1
g124
tp575
a(I2
g124
tp576
a(I3
g156
tp577
a(I4
g126
tp578
a(I0
g126
tp579
a(I1
g124
tp580
a(I2
g124
tp581
a(I3
g156
tp582
a(I4
g126
tp583
a(I0
g126
tp584
a(I1
g124
tp585
a(I2
g124
tp586
a(I3
g156
tp587
a(I4
g126
tp588
a(I0
g126
tp589
a(I1
g124
tp590
a(I2
g124
tp591
a(I3
g126
tp592
a(I4
g126
tp593
a(I0
g126
tp594
a(I1
g124
tp595
a(I2
g124
tp596
a(I3
g126
tp597
a(I4
g126
tp598
a(I0
g126
tp599
a(I1
g124
tp600
a(I2
g142
tp601
a(I3
g126
tp602
a(I4
g126
tp603
a(I0
g126
tp604
a(I1
g124
tp605
a(I2
g142
tp606
a(I3
g126
tp607
a(I4
g126
tp608
a(I0
g126
tp609
a(I1
g124
tp610
a(I2
g142
tp611
a(I3
g156
tp612
a(I4
g126
tp613
a(I0
g126
tp614
a(I1
g124
tp615
a(I2
g142
tp616
a(I3
g156
tp617
a(I4
g126
tp618
a(I0
g124
tp619
a(I1
g124
tp620
a(I2
g142
tp621
a(I3
g156
tp622
a(I4
g142
tp623
a(I0
g126
tp624
a(I1
g124
tp625
a(I2
g142
tp626
a(I3
g156
tp627
a(I4
g142
tp628
a(I0
g156
tp629
a(I1
g124
tp630
a(I2
g126
tp631
a(I3
g156
tp632
a(I4
g142
tp633
a(I0
g156
tp634
a(I1
g124
tp635
a(I2
g126
tp636
a(I3
g156
tp637
a(I4
g142
tp638
a(I0
g156
tp639
a(I1
g124
tp640
a(I2
g126
tp641
a(I3
g124
tp642
a(I4
g142
tp643
a(I0
g156
tp644
a(I1
g124
tp645
a(I2
g126
tp646
a(I3
g124
tp647
a(I4
g142
tp648
a(I0
g124
tp649
a(I1
g124
tp650
a(I2
g126
tp651
a(I3
g124
tp652
a(I4
g142
tp653
a(I0
g124
tp654
a(I1
g124
tp655
a(I2
g126
tp656
a(I3
g124
tp657
a(I4
g142
tp658
a(I0
g124
tp659
a(I1
g124
tp660
a(I2
g126
tp661
a(I3
g156
tp662
a(I4
g124
tp663
a(I0
g124
tp664
a(I1
g124
tp665
a(I2
g126
tp666
a(I3
g156
tp667
a(I4
g124
tp668
a(I0
g124
tp669
a(I1
g124
tp670
a(I2
g142
tp671
a(I3
g156
tp672
a(I4
g124
tp673
a(I0
g124
tp674
a(I1
g124
tp675
a(I2
g142
tp676
a(I3
g156
tp677
a(I4
g124
tp678
a(I0
g124
tp679
a(I1
g156
tp680
a(I2
g142
tp681
a(I3
g126
tp682
a(I4
g124
tp683
a(I0
g124
tp684
a(I1
g156
tp685
a(I2
g142
tp686
a(I3
g126
tp687
a(I4
g124
tp688
a(I0
g124
tp689
a(I1
g156
tp690
a(I2
g142
tp691
a(I3
g126
tp692
a(I4
g124
tp693
a(I0
g253
tp694
a(I1
g156
tp695
a(I2
g142
tp696
a(I3
g126
tp697
a(I4
g124
tp698
a(I0
g253
tp699
a(I1
g156
tp700
a(I2
g142
tp701
a(I3
g126
tp702
a(I4
g124
tp703
a(I0
g124
tp704
a(I1
g156
tp705
a(I2
g142
tp706
a(I3
g126
tp707
a(I4
g124
tp708
a(I0
g126
tp709
a(I1
g126
tp710
a(I2
g142
tp711
a(I3
g126
tp712
a(I4
g124
tp713
a(I0
g126
tp714
a(I1
g126
tp715
a(I2
g142
tp716
a(I3
g126
tp717
a(I4
g124
tp718
a(I0
g126
tp719
a(I1
g126
tp720
a(I2
g142
tp721
a(I3
g126
tp722
a(I4
g124
tp723
a(I0
g126
tp724
a(I1
g126
tp725
a(I2
g142
tp726
a(I3
g126
tp727
a(I4
g124
tp728
a(I0
g156
tp729
a(I1
g156
tp730
a(I2
g124
tp731
a(I3
g126
tp732
a(I4
g124
tp733
a(I0
g156
tp734
a(I1
g156
tp735
a(I2
g124
tp736
a(I3
g126
tp737
a(I4
g124
tp738
a(I0
g142
tp739
a(I1
g156
tp740
a(I2
g124
tp741
a(I3
g126
tp742
a(I4
g124
tp743
a(I0
g142
tp744
a(I1
g156
tp745
a(I2
g124
tp746
a(I3
g126
tp747
a(I4
g124
tp748
a(I0
g142
tp749
a(I1
g156
tp750
a(I2
g124
tp751
a(I3
g126
tp752
a(I4
g124
tp753
a(I0
g142
tp754
a(I1
g126
tp755
a(I2
g124
tp756
a(I3
g126
tp757
a(I4
g124
tp758
a(I0
g142
tp759
a(I1
g126
tp760
a(I2
g124
tp761
a(I3
g126
tp762
a(I4
g156
tp763
a(I0
g156
tp764
a(I1
g126
tp765
a(I2
g156
tp766
a(I3
g126
tp767
a(I4
g156
tp768
a(I0
g156
tp769
a(I1
g142
tp770
a(I2
g124
tp771
a(I3
g142
tp772
a(I4
g156
tp773
a(I0
g156
tp774
a(I1
g142
tp775
a(I2
g156
tp776
a(I3
g142
tp777
a(I4
g156
tp778
a(I0
g126
tp779
a(I1
g142
tp780
a(I2
g124
tp781
a(I3
g124
tp782
a(I4
g124
tp783
a(I0
g126
tp784
a(I1
g142
tp785
a(I2
g124
tp786
a(I3
g124
tp787
a(I4
g124
tp788
a(I0
g126
tp789
a(I1
g142
tp790
a(I2
g124
tp791
a(I3
g124
tp792
a(I4
g124
tp793
a(I0
g156
tp794
a(I1
g142
tp795
a(I2
g126
tp796
a(I3
g142
tp797
a(I4
g142
tp798
a(I0
g156
tp799
a(I1
g124
tp800
a(I2
g126
tp801
a(I3
g142
tp802
a(I4
g142
tp803
a(I0
g156
tp804
a(I1
g124
tp805
a(I2
g126
tp806
a(I3
g142
tp807
a(I4
g142
tp808
a(I0
g126
tp809
a(I1
g124
tp810
a(I2
g126
tp811
a(I3
g126
tp812
a(I4
g142
tp813
a(I0
g126
tp814
a(I1
g124
tp815
a(I2
g142
tp816
a(I3
g126
tp817
a(I4
g124
tp818
a(I0
g126
tp819
a(I1
g124
tp820
a(I2
g142
tp821
a(I3
g126
tp822
a(I4
g124
tp823
a(I0
g156
tp824
a(I1
g156
tp825
a(I2
g126
tp826
a(I3
g142
tp827
a(I4
g124
tp828
a(I0
g156
tp829
a(I1
g156
tp830
a(I2
g126
tp831
a(I3
g142
tp832
a(I4
g124
tp833
a(I0
g156
tp834
a(I1
g156
tp835
a(I2
g126
tp836
a(I3
g142
tp837
a(I4
g124
tp838
a(I0
g126
tp839
a(I1
g126
tp840
a(I2
g126
tp841
a(I3
g124
tp842
a(I4
g124
tp843
a(I0
g126
tp844
a(I1
g126
tp845
a(I2
g126
tp846
a(I3
g124
tp847
a(I4
g124
tp848
a(I0
g126
tp849
a(I1
g156
tp850
a(I2
g156
tp851
a(I3
g124
tp852
a(I4
g124
tp853
a(I0
g142
tp854
a(I1
g156
tp855
a(I2
g156
tp856
a(I3
g124
tp857
a(I4
g124
tp858
a(I0
g142
tp859
a(I1
g156
tp860
a(I2
g156
tp861
a(I3
g142
tp862
a(I4
g124
tp863
a(I0
g142
tp864
a(I1
g126
tp865
a(I2
g156
tp866
a(I3
g142
tp867
a(I4
g124
tp868
a(I0
g126
tp869
a(I1
g126
tp870
a(I2
g124
tp871
a(I3
g126
tp872
a(I4
g156
tp873
a(I0
g126
tp874
a(I1
g126
tp875
a(I2
g124
tp876
a(I3
g126
tp877
a(I4
g156
tp878
a(I0
g126
tp879
a(I1
g142
tp880
a(I2
g124
tp881
a(I3
g126
tp882
a(I4
g156
tp883
a(I0
g142
tp884
a(I1
g142
tp885
a(I2
g124
tp886
a(I3
g126
tp887
a(I4
g156
tp888
a(I0
g142
tp889
a(I1
g142
tp890
a(I2
g124
tp891
a(I3
g126
tp892
a(I4
g126
tp893
a(I0
g142
tp894
a(I1
g142
tp895
a(I2
g124
tp896
a(I3
g126
tp897
a(I4
g126
tp898
a(I0
g253
tp899
a(I1
g142
tp900
a(I2
g124
tp901
a(I3
g126
tp902
a(I4
g126
tp903
a(I0
g124
tp904
a(I1
g142
tp905
a(I2
g124
tp906
a(I3
g126
tp907
a(I4
g126
tp908
a(I0
g124
tp909
a(I1
g142
tp910
a(I2
g124
tp911
a(I3
g126
tp912
a(I4
g126
tp913
a(I0
g124
tp914
a(I1
g142
tp915
a(I2
g124
tp916
a(I3
g126
tp917
a(I4
g126
tp918
a(I0
g124
tp919
a(I1
g142
tp920
a(I2
g124
tp921
a(I3
g126
tp922
a(I4
g126
tp923
a(I0
g124
tp924
a(I1
g142
tp925
a(I2
g142
tp926
a(I3
g156
tp927
a(I4
g126
tp928
a(I0
g126
tp929
a(I1
g124
tp930
a(I2
g142
tp931
a(I3
g156
tp932
a(I4
g126
tp933
a(I0
g126
tp934
a(I1
g124
tp935
a(I2
g142
tp936
a(I3
g124
tp937
a(I4
g126
tp938
a(I0
g124
tp939
a(I1
g124
tp940
a(I2
g142
tp941
a(I3
g124
tp942
a(I4
g126
tp943
a(I0
g126
tp944
a(I1
g124
tp945
a(I2
g126
tp946
a(I3
g124
tp947
a(I4
g142
tp948
a(I0
g142
tp949
a(I1
g124
tp950
a(I2
g126
tp951
a(I3
g124
tp952
a(I4
g142
tp953
a(I0
g142
tp954
a(I1
g126
tp955
a(I2
g126
tp956
a(I3
g156
tp957
a(I4
g142
tp958
a(I0
g142
tp959
a(I1
g126
tp960
a(I2
g126
tp961
a(I3
g156
tp962
a(I4
g142
tp963
a(I0
g142
tp964
a(I1
g126
tp965
a(I2
g126
tp966
a(I3
g156
tp967
a(I4
g124
tp968
a(I0
g126
tp969
a(I1
g126
tp970
a(I2
g126
tp971
a(I3
g124
tp972
a(I4
g124
tp973
a(I0
g126
tp974
a(I1
g126
tp975
a(I2
g156
tp976
a(I3
g124
tp977
a(I4
g124
tp978
a(I0
g126
tp979
a(I1
g156
tp980
a(I2
g124
tp981
a(I3
g124
tp982
a(I4
g124
tp983
a(I0
g126
tp984
a(I1
g156
tp985
a(I2
g156
tp986
a(I3
g124
tp987
a(I4
g124
tp988
a(I0
g126
tp989
a(I1
g156
tp990
a(I2
g124
tp991
a(I3
g124
tp992
a(I4
g124
tp993
a(I0
g126
tp994
a(I1
g156
tp995
a(I2
g124
tp996
a(I3
g124
tp997
a(I4
g124
tp998
a(I0
g126
tp999
a(I1
g126
tp1000
a(I2
g124
tp1001
a(I3
g156
tp1002
a(I4
g124
tp1003
a(I0
g126
tp1004
a(I1
g126
tp1005
a(I2
g126
tp1006
a(I3
g156
tp1007
a(I4
g124
tp1008
a(I0
g126
tp1009
a(I1
g126
tp1010
a(I2
g126
tp1011
a(I3
g156
tp1012
a(I4
g124
tp1013
a(I0
g126
tp1014
a(I1
g126
tp1015
a(I2
g126
tp1016
a(I3
g126
tp1017
a(I4
g124
tp1018
a(I0
g126
tp1019
a(I1
g126
tp1020
a(I2
g142
tp1021
a(I3
g126
tp1022
a(I4
g156
tp1023
a(I0
g156
tp1024
a(I1
g126
tp1025
a(I2
g126
tp1026
a(I3
g126
tp1027
a(I4
g156
tp1028
a(I0
g156
tp1029
a(I1
g156
tp1030
a(I2
g156
tp1031
a(I3
g156
tp1032
a(I4
g156
tp1033
a(I0
g156
tp1034
a(I1
g156
tp1035
a(I2
g156
tp1036
a(I3
g156
tp1037
a(I4
g156
tp1038
a(I0
g156
tp1039
a(I1
g156
tp1040
a(I2
g124
tp1041
a(I3
g156
tp1042
a(I4
g156
tp1043
a(I0
g124
tp1044
a(I1
g156
tp1045
a(I2
g124
tp1046
a(I3
g156
tp1047
a(I4
g156
tp1048
a(I0
g124
tp1049
a(I1
g156
tp1050
a(I2
g142
tp1051
a(I3
g124
tp1052
a(I4
g126
tp1053
a(I0
g124
tp1054
a(I1
g156
tp1055
a(I2
g142
tp1056
a(I3
g124
tp1057
a(I4
g126
tp1058
a(I0
g124
tp1059
a(I1
g126
tp1060
a(I2
g126
tp1061
a(I3
g124
tp1062
a(I4
g126
tp1063
a(I0
g124
tp1064
a(I1
g126
tp1065
a(I2
g126
tp1066
a(I3
g124
tp1067
a(I4
g126
tp1068
a(I0
g124
tp1069
a(I1
g126
tp1070
a(I2
g142
tp1071
a(I3
g124
tp1072
a(I4
g126
tp1073
a(I0
g124
tp1074
a(I1
g126
tp1075
a(I2
g142
tp1076
a(I3
g124
tp1077
a(I4
g126
tp1078
a(I0
g126
tp1079
a(I1
g126
tp1080
a(I2
g126
tp1081
a(I3
g124
tp1082
a(I4
g126
tp1083
a(I0
g126
tp1084
a(I1
g126
tp1085
a(I2
g126
tp1086
a(I3
g124
tp1087
a(I4
g126
tp1088
a(I0
g156
tp1089
a(I1
g126
tp1090
a(I2
g126
tp1091
a(I3
g124
tp1092
a(I4
g126
tp1093
a(I0
g156
tp1094
a(I1
g126
tp1095
a(I2
g126
tp1096
a(I3
g124
tp1097
a(I4
g126
tp1098
a(I0
g156
tp1099
a(I1
g126
tp1100
a(I2
g126
tp1101
a(I3
g124
tp1102
a(I4
g156
tp1103
a(I0
g126
tp1104
a(I1
g126
tp1105
a(I2
g126
tp1106
a(I3
g124
tp1107
a(I4
g156
tp1108
a(I0
g126
tp1109
a(I1
g126
tp1110
a(I2
g126
tp1111
a(I3
g124
tp1112
a(I4
g156
tp1113
a(I0
g126
tp1114
a(I1
g126
tp1115
a(I2
g126
tp1116
a(I3
g124
tp1117
a(I4
g156
tp1118
a(I0
g126
tp1119
a(I1
g156
tp1120
a(I2
g126
tp1121
a(I3
g124
tp1122
a(I4
g156
tp1123
a(I0
g126
tp1124
a(I1
g156
tp1125
a(I2
g126
tp1126
a(I3
g124
tp1127
a(I4
g156
tp1128
a(I0
g142
tp1129
a(I1
g156
tp1130
a(I2
g156
tp1131
a(I3
g124
tp1132
a(I4
g156
tp1133
a(I0
g142
tp1134
a(I1
g156
tp1135
a(I2
g156
tp1136
a(I3
g124
tp1137
a(I4
g156
tp1138
a(I0
g142
tp1139
a(I1
g156
tp1140
a(I2
g156
tp1141
a(I3
g124
tp1142
a(I4
g156
tp1143
a(I0
g124
tp1144
a(I1
g156
tp1145
a(I2
g156
tp1146
a(I3
g124
tp1147
a(I4
g156
tp1148
a(I0
g124
tp1149
a(I1
g124
tp1150
a(I2
g156
tp1151
a(I3
g124
tp1152
a(I4
g156
tp1153
a(I0
g124
tp1154
a(I1
g124
tp1155
a(I2
g156
tp1156
a(I3
g124
tp1157
a(I4
g156
tp1158
a(I0
g253
tp1159
a(I1
g124
tp1160
a(I2
g156
tp1161
a(I3
g142
tp1162
a(I4
g156
tp1163
a(I0
g124
tp1164
a(I1
g124
tp1165
a(I2
g156
tp1166
a(I3
g142
tp1167
a(I4
g156
tp1168
a(I0
g124
tp1169
a(I1
g124
tp1170
a(I2
g124
tp1171
a(I3
g142
tp1172
a(I4
g156
tp1173
a(I0
g142
tp1174
a(I1
g124
tp1175
a(I2
g124
tp1176
a(I3
g142
tp1177
a(I4
g156
tp1178
a(I0
g142
tp1179
a(I1
g156
tp1180
a(I2
g124
tp1181
a(I3
g126
tp1182
a(I4
g126
tp1183
a(I0
g156
tp1184
a(I1
g156
tp1185
a(I2
g124
tp1186
a(I3
g126
tp1187
a(I4
g126
tp1188
a(I0
g142
tp1189
a(I1
g156
tp1190
a(I2
g124
tp1191
a(I3
g126
tp1192
a(I4
g126
tp1193
a(I0
g142
tp1194
a(I1
g156
tp1195
a(I2
g124
tp1196
a(I3
g126
tp1197
a(I4
g126
tp1198
a(I0
g156
tp1199
a(I1
g126
tp1200
a(I2
g124
tp1201
a(I3
g126
tp1202
a(I4
g156
tp1203
a(I0
g156
tp1204
a(I1
g126
tp1205
a(I2
g124
tp1206
a(I3
g126
tp1207
a(I4
g156
tp1208
a(I0
g253
tp1209
a(I1
g126
tp1210
a(I2
g124
tp1211
a(I3
g126
tp1212
a(I4
g156
tp1213
a(I0
g156
tp1214
a(I1
g126
tp1215
a(I2
g124
tp1216
a(I3
g126
tp1217
a(I4
g156
tp1218
a(I0
g156
tp1219
a(I1
g126
tp1220
a(I2
g124
tp1221
a(I3
g126
tp1222
a(I4
g126
tp1223
a(I0
g156
tp1224
a(I1
g126
tp1225
a(I2
g124
tp1226
a(I3
g126
tp1227
a(I4
g126
tp1228
a(I0
g156
tp1229
a(I1
g126
tp1230
a(I2
g124
tp1231
a(I3
g142
tp1232
a(I4
g126
tp1233
a(I0
g156
tp1234
a(I1
g126
tp1235
a(I2
g124
tp1236
a(I3
g142
tp1237
a(I4
g126
tp1238
a(I0
g156
tp1239
a(I1
g126
tp1240
a(I2
g124
tp1241
a(I3
g142
tp1242
a(I4
g126
tp1243
a(I0
g156
tp1244
a(I1
g126
tp1245
a(I2
g124
tp1246
a(I3
g142
tp1247
a(I4
g126
tp1248
a(I0
g156
tp1249
a(I1
g126
tp1250
a(I2
g124
tp1251
a(I3
g142
tp1252
a(I4
g126
tp1253
a(I0
g156
tp1254
a(I1
g126
tp1255
a(I2
g156
tp1256
a(I3
g142
tp1257
a(I4
g126
tp1258
a(I0
g156
tp1259
a(I1
g126
tp1260
a(I2
g156
tp1261
a(I3
g142
tp1262
a(I4
g126
tp1263
a(I0
g156
tp1264
a(I1
g126
tp1265
a(I2
g126
tp1266
a(I3
g142
tp1267
a(I4
g126
tp1268
a(I0
g156
tp1269
a(I1
g142
tp1270
a(I2
g126
tp1271
a(I3
g142
tp1272
a(I4
g126
tp1273
a(I0
g156
tp1274
a(I1
g142
tp1275
a(I2
g126
tp1276
a(I3
g142
tp1277
a(I4
g126
tp1278
a(I0
g124
tp1279
a(I1
g124
tp1280
a(I2
g126
tp1281
a(I3
g142
tp1282
a(I4
g156
tp1283
a(I0
g126
tp1284
a(I1
g124
tp1285
a(I2
g156
tp1286
a(I3
g142
tp1287
a(I4
g156
tp1288
a(I0
g126
tp1289
a(I1
g142
tp1290
a(I2
g156
tp1291
a(I3
g142
tp1292
a(I4
g124
tp1293
a(I0
g126
tp1294
a(I1
g142
tp1295
a(I2
g156
tp1296
a(I3
g142
tp1297
a(I4
g124
tp1298
a(I0
g126
tp1299
a(I1
g142
tp1300
a(I2
g126
tp1301
a(I3
g142
tp1302
a(I4
g124
tp1303
a(I0
g126
tp1304
a(I1
g126
tp1305
a(I2
g126
tp1306
a(I3
g124
tp1307
a(I4
g124
tp1308
a(I0
g126
tp1309
a(I1
g126
tp1310
a(I2
g126
tp1311
a(I3
g124
tp1312
a(I4
g156
tp1313
a(I0
g156
tp1314
a(I1
g142
tp1315
a(I2
g126
tp1316
a(I3
g124
tp1317
a(I4
g156
tp1318
a(I0
g142
tp1319
a(I1
g142
tp1320
a(I2
g126
tp1321
a(I3
g124
tp1322
a(I4
g156
tp1323
a(I0
g124
tp1324
a(I1
g142
tp1325
a(I2
g126
tp1326
a(I3
g124
tp1327
a(I4
g124
tp1328
a(I0
g124
tp1329
a(I1
g124
tp1330
a(I2
g126
tp1331
a(I3
g142
tp1332
a(I4
g124
tp1333
a(I0
g124
tp1334
a(I1
g124
tp1335
a(I2
g126
tp1336
a(I3
g142
tp1337
a(I4
g124
tp1338
a(I0
g124
tp1339
a(I1
g124
tp1340
a(I2
g126
tp1341
a(I3
g142
tp1342
a(I4
g124
tp1343
a(I0
g124
tp1344
a(I1
g124
tp1345
a(I2
g156
tp1346
a(I3
g142
tp1347
a(I4
g124
tp1348
a(I0
g156
tp1349
a(I1
g124
tp1350
a(I2
g156
tp1351
a(I3
g142
tp1352
a(I4
g124
tp1353
a(I0
g156
tp1354
a(I1
g124
tp1355
a(I2
g156
tp1356
a(I3
g142
tp1357
a(I4
g124
tp1358
a(I0
g253
tp1359
a(I1
g124
tp1360
a(I2
g126
tp1361
a(I3
g142
tp1362
a(I4
g124
tp1363
a(I0
g156
tp1364
a(I1
g142
tp1365
a(I2
g126
tp1366
a(I3
g126
tp1367
a(I4
g124
tp1368
a(I0
g124
tp1369
a(I1
g142
tp1370
a(I2
g126
tp1371
a(I3
g126
tp1372
a(I4
g142
tp1373
a(I0
g124
tp1374
a(I1
g124
tp1375
a(I2
g126
tp1376
a(I3
g126
tp1377
a(I4
g142
tp1378
a(I0
g124
tp1379
a(I1
g124
tp1380
a(I2
g126
tp1381
a(I3
g126
tp1382
a(I4
g142
tp1383
a(I0
g124
tp1384
a(I1
g124
tp1385
a(I2
g156
tp1386
a(I3
g126
tp1387
a(I4
g124
tp1388
a(I0
g124
tp1389
a(I1
g124
tp1390
a(I2
g156
tp1391
a(I3
g156
tp1392
a(I4
g124
tp1393
a(I0
g124
tp1394
a(I1
g124
tp1395
a(I2
g124
tp1396
a(I3
g156
tp1397
a(I4
g124
tp1398
a(I0
g142
tp1399
a(I1
g124
tp1400
a(I2
g124
tp1401
a(I3
g156
tp1402
a(I4
g124
tp1403
a(I0
g142
tp1404
a(I1
g124
tp1405
a(I2
g124
tp1406
a(I3
g156
tp1407
a(I4
g124
tp1408
a(I0
g142
tp1409
a(I1
g124
tp1410
a(I2
g124
tp1411
a(I3
g156
tp1412
a(I4
g156
tp1413
a(I0
g126
tp1414
a(I1
g124
tp1415
a(I2
g124
tp1416
a(I3
g156
tp1417
a(I4
g156
tp1418
a(I0
g126
tp1419
a(I1
g124
tp1420
a(I2
g124
tp1421
a(I3
g156
tp1422
a(I4
g156
tp1423
a(I0
g126
tp1424
a(I1
g124
tp1425
a(I2
g124
tp1426
a(I3
g124
tp1427
a(I4
g126
tp1428
a(I0
g126
tp1429
a(I1
g142
tp1430
a(I2
g124
tp1431
a(I3
g124
tp1432
a(I4
g126
tp1433
a(I0
g126
tp1434
a(I1
g142
tp1435
a(I2
g124
tp1436
a(I3
g124
tp1437
a(I4
g156
tp1438
a(I0
g126
tp1439
a(I1
g124
tp1440
a(I2
g124
tp1441
a(I3
g124
tp1442
a(I4
g156
tp1443
a(I0
g156
tp1444
a(I1
g124
tp1445
a(I2
g124
tp1446
a(I3
g124
tp1447
a(I4
g156
tp1448
a(I0
g156
tp1449
a(I1
g142
tp1450
a(I2
g124
tp1451
a(I3
g142
tp1452
a(I4
g126
tp1453
a(I0
g156
tp1454
a(I1
g142
tp1455
a(I2
g124
tp1456
a(I3
g142
tp1457
a(I4
g126
tp1458
a(I0
g156
tp1459
a(I1
g142
tp1460
a(I2
g124
tp1461
a(I3
g142
tp1462
a(I4
g126
tp1463
a(I0
g156
tp1464
a(I1
g142
tp1465
a(I2
g142
tp1466
a(I3
g142
tp1467
a(I4
g142
tp1468
a(I0
g156
tp1469
a(I1
g142
tp1470
a(I2
g142
tp1471
a(I3
g142
tp1472
a(I4
g142
tp1473
a(I0
g126
tp1474
a(I1
g124
tp1475
a(I2
g124
tp1476
a(I3
g142
tp1477
a(I4
g142
tp1478
a(I0
g126
tp1479
a(I1
g124
tp1480
a(I2
g124
tp1481
a(I3
g142
tp1482
a(I4
g142
tp1483
a(I0
g126
tp1484
a(I1
g124
tp1485
a(I2
g124
tp1486
a(I3
g126
tp1487
a(I4
g142
tp1488
a(I0
g126
tp1489
a(I1
g124
tp1490
a(I2
g142
tp1491
a(I3
g126
tp1492
a(I4
g142
tp1493
a(I0
g124
tp1494
a(I1
g124
tp1495
a(I2
g142
tp1496
a(I3
g126
tp1497
a(I4
g142
tp1498
a(I0
g142
tp1499
a(I1
g142
tp1500
a(I2
g142
tp1501
a(I3
g126
tp1502
a(I4
g142
tp1503
a(I0
g142
tp1504
a(I1
g142
tp1505
a(I2
g126
tp1506
a(I3
g126
tp1507
a(I4
g142
tp1508
a(I0
g142
tp1509
a(I1
g142
tp1510
a(I2
g126
tp1511
a(I3
g156
tp1512
a(I4
g142
tp1513
a(I0
g126
tp1514
a(I1
g126
tp1515
a(I2
g126
tp1516
a(I3
g156
tp1517
a(I4
g124
tp1518
a(I0
g126
tp1519
a(I1
g126
tp1520
a(I2
g142
tp1521
a(I3
g156
tp1522
a(I4
g124
tp1523
a(I0
g142
tp1524
a(I1
g126
tp1525
a(I2
g142
tp1526
a(I3
g156
tp1527
a(I4
g124
tp1528
a(I0
g156
tp1529
a(I1
g126
tp1530
a(I2
g142
tp1531
a(I3
g156
tp1532
a(I4
g124
tp1533
a(I0
g124
tp1534
a(I1
g126
tp1535
a(I2
g142
tp1536
a(I3
g156
tp1537
a(I4
g124
tp1538
a(I0
g124
tp1539
a(I1
g126
tp1540
a(I2
g142
tp1541
a(I3
g126
tp1542
a(I4
g124
tp1543
a(I0
g156
tp1544
a(I1
g126
tp1545
a(I2
g142
tp1546
a(I3
g126
tp1547
a(I4
g124
tp1548
a(I0
g156
tp1549
a(I1
g126
tp1550
a(I2
g124
tp1551
a(I3
g126
tp1552
a(I4
g124
tp1553
a(I0
g156
tp1554
a(I1
g126
tp1555
a(I2
g124
tp1556
a(I3
g126
tp1557
a(I4
g124
tp1558
a(I0
g126
tp1559
a(I1
g156
tp1560
a(I2
g124
tp1561
a(I3
g126
tp1562
a(I4
g126
tp1563
a(I0
g126
tp1564
a(I1
g156
tp1565
a(I2
g124
tp1566
a(I3
g126
tp1567
a(I4
g126
tp1568
a(I0
g156
tp1569
a(I1
g156
tp1570
a(I2
g124
tp1571
a(I3
g156
tp1572
a(I4
g126
tp1573
a(I0
g156
tp1574
a(I1
g156
tp1575
a(I2
g124
tp1576
a(I3
g156
tp1577
a(I4
g126
tp1578
a(I0
g124
tp1579
a(I1
g156
tp1580
a(I2
g124
tp1581
a(I3
g156
tp1582
a(I4
g126
tp1583
a(I0
g124
tp1584
a(I1
g156
tp1585
a(I2
g124
tp1586
a(I3
g156
tp1587
a(I4
g126
tp1588
a(I0
g253
tp1589
a(I1
g156
tp1590
a(I2
g142
tp1591
a(I3
g156
tp1592
a(I4
g126
tp1593
a(I0
g124
tp1594
a(I1
g156
tp1595
a(I2
g142
tp1596
a(I3
g156
tp1597
a(I4
g126
tp1598
a(I0
g124
tp1599
a(I1
g156
tp1600
a(I2
g142
tp1601
a(I3
g126
tp1602
a(I4
g126
tp1603
a(I0
g124
tp1604
a(I1
g156
tp1605
a(I2
g142
tp1606
a(I3
g126
tp1607
a(I4
g126
tp1608
a(I0
g124
tp1609
a(I1
g156
tp1610
a(I2
g126
tp1611
a(I3
g126
tp1612
a(I4
g142
tp1613
a(I0
g124
tp1614
a(I1
g156
tp1615
a(I2
g126
tp1616
a(I3
g126
tp1617
a(I4
g142
tp1618
a(I0
g124
tp1619
a(I1
g156
tp1620
a(I2
g126
tp1621
a(I3
g126
tp1622
a(I4
g142
tp1623
a(I0
g124
tp1624
a(I1
g156
tp1625
a(I2
g126
tp1626
a(I3
g126
tp1627
a(I4
g142
tp1628
a(I0
g124
tp1629
a(I1
g156
tp1630
a(I2
g126
tp1631
a(I3
g156
tp1632
a(I4
g142
tp1633
a(I0
g124
tp1634
a(I1
g156
tp1635
a(I2
g126
tp1636
a(I3
g156
tp1637
a(I4
g142
tp1638
a(I0
g142
tp1639
a(I1
g124
tp1640
a(I2
g126
tp1641
a(I3
g156
tp1642
a(I4
g142
tp1643
a(I0
g142
tp1644
a(I1
g124
tp1645
a(I2
g126
tp1646
a(I3
g156
tp1647
a(I4
g142
tp1648
a(I0
g126
tp1649
a(I1
g124
tp1650
a(I2
g126
tp1651
a(I3
g156
tp1652
a(I4
g142
tp1653
a(I0
g126
tp1654
a(I1
g124
tp1655
a(I2
g126
tp1656
a(I3
g156
tp1657
a(I4
g142
tp1658
a(I0
g126
tp1659
a(I1
g124
tp1660
a(I2
g126
tp1661
a(I3
g126
tp1662
a(I4
g142
tp1663
a(I0
g142
tp1664
a(I1
g124
tp1665
a(I2
g126
tp1666
a(I3
g126
tp1667
a(I4
g142
tp1668
a(I0
g142
tp1669
a(I1
g124
tp1670
a(I2
g126
tp1671
a(I3
g156
tp1672
a(I4
g142
tp1673
a(I0
g142
tp1674
a(I1
g124
tp1675
a(I2
g126
tp1676
a(I3
g156
tp1677
a(I4
g142
tp1678
a(I0
g124
tp1679
a(I1
g124
tp1680
a(I2
g126
tp1681
a(I3
g156
tp1682
a(I4
g142
tp1683
a(I0
g124
tp1684
a(I1
g124
tp1685
a(I2
g126
tp1686
a(I3
g156
tp1687
a(I4
g142
tp1688
a(I0
g124
tp1689
a(I1
g126
tp1690
a(I2
g126
tp1691
a(I3
g124
tp1692
a(I4
g124
tp1693
a(I0
g124
tp1694
a(I1
g126
tp1695
a(I2
g126
tp1696
a(I3
g124
tp1697
a(I4
g124
tp1698
a(I0
g124
tp1699
a(I1
g126
tp1700
a(I2
g126
tp1701
a(I3
g124
tp1702
a(I4
g124
tp1703
a(I0
g124
tp1704
a(I1
g126
tp1705
a(I2
g126
tp1706
a(I3
g124
tp1707
a(I4
g124
tp1708
a(I0
g124
tp1709
a(I1
g126
tp1710
a(I2
g126
tp1711
a(I3
g124
tp1712
a(I4
g124
tp1713
a(I0
g124
tp1714
a(I1
g126
tp1715
a(I2
g126
tp1716
a(I3
g124
tp1717
a(I4
g124
tp1718
a(I0
g124
tp1719
a(I1
g126
tp1720
a(I2
g156
tp1721
a(I3
g126
tp1722
a(I4
g124
tp1723
a(I0
g156
tp1724
a(I1
g126
tp1725
a(I2
g156
tp1726
a(I3
g126
tp1727
a(I4
g124
tp1728
a(I0
g156
tp1729
a(I1
g156
tp1730
a(I2
g124
tp1731
a(I3
g126
tp1732
a(I4
g156
tp1733
a(I0
g156
tp1734
a(I1
g156
tp1735
a(I2
g124
tp1736
a(I3
g126
tp1737
a(I4
g156
tp1738
a(I0
g126
tp1739
a(I1
g156
tp1740
a(I2
g124
tp1741
a(I3
g142
tp1742
a(I4
g156
tp1743
a(I0
g126
tp1744
a(I1
g156
tp1745
a(I2
g124
tp1746
a(I3
g124
tp1747
a(I4
g126
tp1748
a(I0
g126
tp1749
a(I1
g124
tp1750
a(I2
g156
tp1751
a(I3
g142
tp1752
a(I4
g126
tp1753
a(I0
g156
tp1754
as.