(dp1
S'layout'
p2
(ilayout
Layout
p3
(dp4
S'capsules'
p5
(lp6
(I1
I6
tp7
a(I26
I6
tp8
a(I1
I23
tp9
a(I26
I23
tp10
asS'numGhosts'
p11
I4
sS'food'
p12
(igame
Grid
p13
(dp14
S'CELLS_PER_INT'
p15
I30
sS'width'
p16
I28
sS'data'
p17
(lp18
(lp19
I00
aI00
aI00
aI00
aI00
aI00
aI00
aI00
aI00
aI00
aI00
aI00
aI00
aI00
aI00
aI00
aI00
aI00
aI00
aI00
aI00
aI00
aI00
aI00
aI00
aI00
aI00
aa(lp20
I00
aI01
aI01
aI01
aI00
aI00
aI00
aI01
aI01
aI01
aI00
aI00
aI00
aI00
aI00
aI00
aI00
aI00
aI01
aI01
aI01
aI01
aI01
aI00
aI01
aI01
aI00
aa(lp21
I00
aI01
aI00
aI01
aI00
aI00
aI01
aI00
aI00
aI01
aI00
aI00
aI00
aI00
aI00
aI00
aI00
aI00
aI01
aI00
aI00
aI01
aI00
aI00
aI00
aI01
aI00
aa(lp22
I00
aI01
aI00
aI01
aI01
aI01
aI01
aI00
aI00
aI01
aI00
aI00
aI00
aI00
aI00
aI00
aI00
aI00
aI01
aI00
aI00
aI01
aI00
aI00
aI00
aI01
aI00
aa(lp23
I00
aI01
aI00
aI01
aI00
aI00
aI00
aI00
aI00
aI01
aI00
aI00
aI00
aI00
aI00
aI00
aI00
aI00
aI01
aI00
aI00
aI01
aI00
aI00
aI00
aI01
aI00
aa(lp24
I00
aI01
aI00
aI01
aI00
aI00
aI00
aI00
aI00
aI01
aI00
aI00
aI00
aI00
aI00
aI00
aI00
aI00
aI01
aI00
aI00
aI01
aI00
aI00
aI00
aI01
aI00
aa(lp25
I00
aI01
aI00
aI01
aI01
aI01
aI01
aI01
aI01
aI01
aI01
aI01
aI01
aI01
aI01
aI01
aI01
aI01
aI01
aI01
aI01
aI01
aI01
aI01
aI01
aI01
aI00
aa(lp26
I00
aI01
aI00
aI00
aI00
aI00
aI01
aI00
aI00
aI01
aI00
aI00
aI00
aI00
aI00
aI00
aI00
aI00
aI00
aI00
aI00
aI01
aI00
aI00
aI00
aI01
aI00
aa(lp27
I00
aI01
aI00
aI00
aI00
aI00
aI01
aI00
aI00
aI01
aI00
aI00
aI00
aI00
aI00
aI00
aI00
aI00
aI00
aI00
aI00
aI01
aI00
aI00
aI00
aI01
aI00
aa(lp28
I00
aI01
aI00
aI01
aI01
aI01
aI01
aI00
aI00
aI01
aI00
aI00
aI00
aI00
aI00
aI00
aI00
aI00
aI01
aI01
aI01
aI01
aI00
aI00
aI00
aI01
aI00
aa(lp29
I00
aI01
aI00
aI01
aI00
aI00
aI01
aI00
aI00
aI01
aI00
aI00
aI00
aI00
aI00
aI00
aI00
aI00
aI01
aI00
aI00
aI01
aI00
aI00
aI00
aI01
aI00
aa(lp30
I00
aI01
aI00
aI01
aI00
aI00
aI01
aI00
aI00
aI01
aI00
aI00
aI00
aI00
aI00
aI00
aI00
aI00
aI01
aI00
aI00
aI01
aI00
aI00
aI00
aI01
aI00
aa(lp31
I00
aI01
aI01
aI01
aI00
aI00
aI01
aI01
aI01
aI01
aI00
aI00
aI00
aI00
aI00
aI00
aI00
aI00
aI01
aI00
aI00
aI01
aI01
aI01
aI01
aI01
aI00
aa(lp32
I00
aI01
aI00
aI00
aI00
aI00
aI00
aI00
aI00
aI00
aI00
aI00
aI00
aI00
aI00
aI00
aI00
aI00
aI00
aI00
aI00
aI01
aI00
aI00
aI00
aI00
aI00
aa(lp33
I00
aI00
aI00
aI00
aI00
aI00
aI00
aI00
aI00
aI00
aI00
aI00
aI00
aI00
aI00
aI00
aI00
aI00
aI00
aI00
aI00
aI01
aI00
aI00
aI00
aI00
aI00
aa(lp34
I00
aI01
aI01
aI01
aI00
aI00
aI01
aI01
aI01
aI01
aI00
aI00
aI00
aI00
aI00
aI00
aI00
aI00
aI01
aI00
aI00
aI01
aI01
aI01
aI01
aI01
aI00
aa(lp35
I00
aI01
aI00
aI01
aI00
aI00
aI01
aI00
aI00
aI01
aI00
aI00
aI00
aI00
aI00
aI00
aI00
aI00
aI01
aI00
aI00
aI01
aI00
aI00
aI00
aI01
aI00
aa(lp36
I00
aI01
aI00
aI01
aI00
aI00
aI01
aI00
aI00
aI01
aI00
aI00
aI00
aI00
aI00
aI00
aI00
aI00
aI01
aI00
aI00
aI01
aI00
aI00
aI00
aI01
aI00
aa(lp37
I00
aI01
aI00
aI01
aI01
aI01
aI01
aI00
aI00
aI01
aI00
aI00
aI00
aI00
aI00
aI00
aI00
aI00
aI01
aI01
aI01
aI01
aI00
aI00
aI00
aI01
aI00
aa(lp38
I00
aI01
aI00
aI00
aI00
aI00
aI01
aI00
aI00
aI01
aI00
aI00
aI00
aI00
aI00
aI00
aI00
aI00
aI00
aI00
aI00
aI01
aI00
aI00
aI00
aI01
aI00
aa(lp39
I00
aI01
aI00
aI00
aI00
aI00
aI01
aI00
aI00
aI01
aI00
aI00
aI00
aI00
aI00
aI00
aI00
aI00
aI00
aI00
aI00
aI01
aI00
aI00
aI00
aI01
aI00
aa(lp40
I00
aI01
aI00
aI01
aI01
aI01
aI01
aI01
aI01
aI01
aI01
aI01
aI01
aI01
aI01
aI01
aI01
aI01
aI01
aI01
aI01
aI01
aI01
aI01
aI01
aI01
aI00
aa(lp41
I00
aI01
aI00
aI01
aI00
aI00
aI00
aI00
aI00
aI01
aI00
aI00
aI00
aI00
aI00
aI00
aI00
aI00
aI01
aI00
aI00
aI01
aI00
aI00
aI00
aI01
aI00
aa(lp42
I00
aI01
aI00
aI01
aI00
aI00
aI00
aI00
aI00
aI01
aI00
aI00
aI00
aI00
aI00
aI00
aI00
aI00
aI01
aI00
aI00
aI01
aI00
aI00
aI00
aI01
aI00
aa(lp43
I00
aI01
aI00
aI01
aI01
aI01
aI01
aI00
aI00
aI01
aI00
aI00
aI00
aI00
aI00
aI00
aI00
aI00
aI01
aI00
aI00
aI01
aI00
aI00
aI00
aI01
aI00
aa(lp44
I00
aI01
aI00
aI01
aI00
aI00
aI01
aI00
aI00
aI01
aI00
aI00
aI00
aI00
aI00
aI00
aI00
aI00
aI01
aI00
aI00
aI01
aI00
aI00
aI00
aI01
aI00
aa(lp45
I00
aI01
aI01
aI01
aI00
aI00
aI00
aI01
aI01
aI01
aI00
aI00
aI00
aI00
aI00
aI00
aI00
aI00
aI01
aI01
aI01
aI01
aI01
aI00
aI01
aI01
aI00
aa(lp46
I00
aI00
aI00
aI00
aI00
aI00
aI00
aI00
aI00
aI00
aI00
aI00
aI00
aI00
aI00
aI00
aI00
aI00
aI00
aI00
aI00
aI00
aI00
aI00
aI00
aI00
aI00
aasS'height'
p47
I27
sbsS'agentPositions'
p48
(lp49
(I01
(I14
I1
tp50
tp51
a(I00
(I10
I13
tp52
tp53
a(I00
(I13
I13
tp54
tp55
a(I00
(I14
I13
tp56
tp57
a(I00
(I17
I13
tp58
tp59
asg47
I27
sg16
I28
sS'walls'
p60
(igame
Grid
p61
(dp62
g15
I30
sg16
I28
sg17
(lp63
(lp64
I01
aI01
aI01
aI01
aI01
aI01
aI01
aI01
aI01
aI01
aI01
aI01
aI01
aI01
aI01
aI01
aI01
aI01
aI01
aI01
aI01
aI01
aI01
aI01
aI01
aI01
aI01
aa(lp65
I01
aI00
aI00
aI00
aI01
aI01
aI00
aI00
aI00
aI00
aI01
aI01
aI01
aI00
aI01
aI01
aI01
aI01
aI00
aI00
aI00
aI00
aI00
aI00
aI00
aI00
aI01
aa(lp66
I01
aI00
aI01
aI00
aI01
aI01
aI00
aI01
aI01
aI00
aI01
aI01
aI01
aI00
aI01
aI01
aI01
aI01
aI00
aI01
aI01
aI00
aI01
aI01
aI01
aI00
aI01
aa(lp67
I01
aI00
aI01
aI00
aI00
aI00
aI00
aI01
aI01
aI00
aI01
aI01
aI01
aI00
aI01
aI01
aI01
aI01
aI00
aI01
aI01
aI00
aI01
aI01
aI01
aI00
aI01
aa(lp68
I01
aI00
aI01
aI00
aI01
aI01
aI01
aI01
aI01
aI00
aI01
aI01
aI01
aI00
aI01
aI01
aI01
aI01
aI00
aI01
aI01
aI00
aI01
aI01
aI01
aI00
aI01
aa(lp69
I01
aI00
aI01
aI00
aI01
aI01
aI01
aI01
aI01
aI00
aI01
aI01
aI01
aI00
aI01
aI01
aI01
aI01
aI00
aI01
aI01
aI00
aI01
aI01
aI01
aI00
aI01
aa(lp70
I01
aI00
aI01
aI00
aI00
aI00
aI00
aI00
aI00
aI00
aI00
aI00
aI00
aI00
aI00
aI00
aI00
aI00
aI00
aI00
aI00
aI00
aI00
aI00
aI00
aI00
aI01
aa(lp71
I01
aI00
aI01
aI01
aI01
aI01
aI00
aI01
aI01
aI00
aI01
aI01
aI01
aI00
aI01
aI01
aI01
aI01
aI01
aI01
aI01
aI00
aI01
aI01
aI01
aI00
aI01
aa(lp72
I01
aI00
aI01
aI01
aI01
aI01
aI00
aI01
aI01
aI00
aI00
aI00
aI00
aI00
aI00
aI00
aI01
aI01
aI01
aI01
aI01
aI00
aI01
aI01
aI01
aI00
aI01
aa(lp73
I01
aI00
aI01
aI00
aI00
aI00
aI00
aI01
aI01
aI00
aI01
aI00
aI01
aI01
aI01
aI00
aI01
aI01
aI00
aI00
aI00
aI00
aI01
aI01
aI01
aI00
aI01
aa(lp74
I01
aI00
aI01
aI00
aI01
aI01
aI00
aI01
aI01
aI00
aI01
aI00
aI01
aI00
aI01
aI00
aI01
aI01
aI00
aI01
aI01
aI00
aI01
aI01
aI01
aI00
aI01
aa(lp75
I01
aI00
aI01
aI00
aI01
aI01
aI00
aI01
aI01
aI00
aI01
aI00
aI01
aI00
aI01
aI00
aI01
aI01
aI00
aI01
aI01
aI00
aI01
aI01
aI01
aI00
aI01
aa(lp76
I01
aI00
aI00
aI00
aI01
aI01
aI00
aI00
aI00
aI00
aI01
aI00
aI01
aI00
aI01
aI00
aI00
aI00
aI00
aI01
aI01
aI00
aI00
aI00
aI00
aI00
aI01
aa(lp77
I01
aI00
aI01
aI01
aI01
aI01
aI00
aI01
aI01
aI01
aI01
aI00
aI01
aI00
aI00
aI00
aI01
aI01
aI01
aI01
aI01
aI00
aI01
aI01
aI01
aI01
aI01
aa(lp78
I01
aI00
aI01
aI01
aI01
aI01
aI00
aI01
aI01
aI01
aI01
aI00
aI01
aI00
aI00
aI00
aI01
aI01
aI01
aI01
aI01
aI00
aI01
aI01
aI01
aI01
aI01
aa(lp79
I01
aI00
aI00
aI00
aI01
aI01
aI00
aI00
aI00
aI00
aI01
aI00
aI01
aI00
aI01
aI00
aI00
aI00
aI00
aI01
aI01
aI00
aI00
aI00
aI00
aI00
aI01
aa(lp80
I01
aI00
aI01
aI00
aI01
aI01
aI00
aI01
aI01
aI00
aI01
aI00
aI01
aI00
aI01
aI00
aI01
aI01
aI00
aI01
aI01
aI00
aI01
aI01
aI01
aI00
aI01
aa(lp81
I01
aI00
aI01
aI00
aI01
aI01
aI00
aI01
aI01
aI00
aI01
aI00
aI01
aI00
aI01
aI00
aI01
aI01
aI00
aI01
aI01
aI00
aI01
aI01
aI01
aI00
aI01
aa(lp82
I01
aI00
aI01
aI00
aI00
aI00
aI00
aI01
aI01
aI00
aI01
aI00
aI01
aI01
aI01
aI00
aI01
aI01
aI00
aI00
aI00
aI00
aI01
aI01
aI01
aI00
aI01
aa(lp83
I01
aI00
aI01
aI01
aI01
aI01
aI00
aI01
aI01
aI00
aI00
aI00
aI00
aI00
aI00
aI00
aI01
aI01
aI01
aI01
aI01
aI00
aI01
aI01
aI01
aI00
aI01
aa(lp84
I01
aI00
aI01
aI01
aI01
aI01
aI00
aI01
aI01
aI00
aI01
aI01
aI01
aI00
aI01
aI01
aI01
aI01
aI01
aI01
aI01
aI00
aI01
aI01
aI01
aI00
aI01
aa(lp85
I01
aI00
aI01
aI00
aI00
aI00
aI00
aI00
aI00
aI00
aI00
aI00
aI00
aI00
aI00
aI00
aI00
aI00
aI00
aI00
aI00
aI00
aI00
aI00
aI00
aI00
aI01
aa(lp86
I01
aI00
aI01
aI00
aI01
aI01
aI01
aI01
aI01
aI00
aI01
aI01
aI01
aI00
aI01
aI01
aI01
aI01
aI00
aI01
aI01
aI00
aI01
aI01
aI01
aI00
aI01
aa(lp87
I01
aI00
aI01
aI00
aI01
aI01
aI01
aI01
aI01
aI00
aI01
aI01
aI01
aI00
aI01
aI01
aI01
aI01
aI00
aI01
aI01
aI00
aI01
aI01
aI01
aI00
aI01
aa(lp88
I01
aI00
aI01
aI00
aI00
aI00
aI00
aI01
aI01
aI00
aI01
aI01
aI01
aI00
aI01
aI01
aI01
aI01
aI00
aI01
aI01
aI00
aI01
aI01
aI01
aI00
aI01
aa(lp89
I01
aI00
aI01
aI00
aI01
aI01
aI00
aI01
aI01
aI00
aI01
aI01
aI01
aI00
aI01
aI01
aI01
aI01
aI00
aI01
aI01
aI00
aI01
aI01
aI01
aI00
aI01
aa(lp90
I01
aI00
aI00
aI00
aI01
aI01
aI00
aI00
aI00
aI00
aI01
aI01
aI01
aI00
aI01
aI01
aI01
aI01
aI00
aI00
aI00
aI00
aI00
aI00
aI00
aI00
aI01
aa(lp91
I01
aI01
aI01
aI01
aI01
aI01
aI01
aI01
aI01
aI01
aI01
aI01
aI01
aI01
aI01
aI01
aI01
aI01
aI01
aI01
aI01
aI01
aI01
aI01
aI01
aI01
aI01
aasg47
I27
sbsS'totalFood'
p92
I229
sS'layoutText'
p93
(lp94
S'%%%%%%%%%%%%%%%%%%%%%%%%%%%%'
p95
aS'%............%%............%'
p96
aS'%.%%%%.%%%%%.%%.%%%%%.%%%%.%'
p97
aS'%o%%%%.%%%%%.%%.%%%%%.%%%%o%'
p98
aS'%.%%%%.%%%%%.%%.%%%%%.%%%%.%'
p99
aS'%..........................%'
p100
aS'%.%%%%.%%.%%%%%%%%.%%.%%%%.%'
p101
aS'%.%%%%.%%.%%%%%%%%.%%.%%%%.%'
p102
aS'%......%%....%%....%%......%'
p103
aS'%%%%%%.%%%%% %% %%%%%.%%%%%%'
p104
aS'%%%%%%.%%%%% %% %%%%%.%%%%%%'
p105
aS'%%%%%%.%            %.%%%%%%'
p106
aS'%%%%%%.% %%%%  %%%% %.%%%%%%'
p107
aS'%     .  %G  GG  G%  .     %'
p108
aS'%%%%%%.% %%%%%%%%%% %.%%%%%%'
p109
aS'%%%%%%.%            %.%%%%%%'
p110
aS'%%%%%%.% %%%%%%%%%% %.%%%%%%'
p111
aS'%............%%............%'
p112
aS'%.%%%%.%%%%%.%%.%%%%%.%%%%.%'
p113
aS'%.%%%%.%%%%%.%%.%%%%%.%%%%.%'
p114
aS'%o..%%.......  .......%%..o%'
p115
aS'%%%.%%.%%.%%%%%%%%.%%.%%.%%%'
p116
aS'%%%.%%.%%.%%%%%%%%.%%.%%.%%%'
p117
aS'%......%%....%%....%%......%'
p118
aS'%.%%%%%%%%%%.%%.%%%%%%%%%%.%'
p119
aS'%.............P............%'
p120
aS'%%%%%%%%%%%%%%%%%%%%%%%%%%%%'
p121
asbsS'actions'
p122
(lp123
(I0
S'West'
p124
tp125
a(I1
S'East'
p126
tp127
a(I2
g126
tp128
a(I3
S'North'
p129
tp130
a(I4
g124
tp131
a(I0
g124
tp132
a(I1
g126
tp133
a(I2
g129
tp134
a(I3
g124
tp135
a(I4
g124
tp136
a(I0
g124
tp137
a(I1
g126
tp138
a(I2
g124
tp139
a(I3
g129
tp140
a(I4
g124
tp141
a(I0
g124
tp142
a(I1
g129
tp143
a(I2
S'South'
p144
tp145
a(I3
g126
tp146
a(I4
g124
tp147
a(I0
g124
tp148
a(I1
g126
tp149
a(I2
g126
tp150
a(I3
g126
tp151
a(I4
g129
tp152
a(I0
g124
tp153
a(I1
g144
tp154
a(I2
g126
tp155
a(I3
g129
tp156
a(I4
g129
tp157
a(I0
g124
tp158
a(I1
g124
tp159
a(I2
g126
tp160
a(I3
g129
tp161
a(I4
g126
tp162
a(I0
g124
tp163
a(I1
g124
tp164
a(I2
g126
tp165
a(I3
g129
tp166
a(I4
g144
tp167
a(I0
g124
tp168
a(I1
g124
tp169
a(I2
g124
tp170
a(I3
g126
tp171
a(I4
g144
tp172
a(I0
g124
tp173
a(I1
g124
tp174
a(I2
g124
tp175
a(I3
g126
tp176
a(I4
g124
tp177
a(I0
g124
tp178
a(I1
g126
tp179
a(I2
g124
tp180
a(I3
g126
tp181
a(I4
g124
tp182
a(I0
g124
tp183
a(I1
g126
tp184
a(I2
g129
tp185
a(I3
g129
tp186
a(I4
g124
tp187
a(I0
g124
tp188
a(I1
g126
tp189
a(I2
g124
tp190
a(I3
g129
tp191
a(I4
g124
tp192
a(I0
g129
tp193
a(I1
g129
tp194
a(I2
g129
tp195
a(I3
g129
tp196
a(I4
g126
tp197
a(I0
g129
tp198
a(I1
g126
tp199
a(I2
g124
tp200
a(I3
g126
tp201
a(I4
g126
tp202
a(I0
g126
tp203
a(I1
g144
tp204
a(I2
g129
tp205
a(I3
g126
tp206
a(I4
g126
tp207
a(I0
g126
tp208
a(I1
g126
tp209
a(I2
g129
tp210
a(I3
g126
tp211
a(I4
g129
tp212
a(I0
g126
tp213
a(I1
g126
tp214
a(I2
g129
tp215
a(I3
g129
tp216
a(I4
g129
tp217
a(I0
g126
tp218
a(I1
g126
tp219
a(I2
g124
tp220
a(I3
g129
tp221
a(I4
g124
tp222
a(I0
g126
tp223
a(I1
g124
tp224
a(I2
g124
tp225
a(I3
g129
tp226
a(I4
g124
tp227
a(I0
g129
tp228
a(I1
g124
tp229
a(I2
g124
tp230
a(I3
g129
tp231
a(I4
g124
tp232
a(I0
g129
tp233
a(I1
g124
tp234
a(I2
g129
tp235
a(I3
g126
tp236
a(I4
g124
tp237
a(I0
g129
tp238
a(I1
g124
tp239
a(I2
g129
tp240
a(I3
g126
tp241
a(I4
g124
tp242
a(I0
g129
tp243
a(I1
g129
tp244
a(I2
g129
tp245
a(I3
g126
tp246
a(I4
g144
tp247
a(I0
g129
tp248
a(I1
g129
tp249
a(I2
g124
tp250
a(I3
g126
tp251
a(I4
g144
tp252
a(I0
g129
tp253
a(I1
g124
tp254
a(I2
g124
tp255
a(I3
g126
tp256
a(I4
g124
tp257
a(I0
g124
tp258
a(I1
g129
tp259
a(I2
g124
tp260
a(I3
g144
tp261
a(I4
g124
tp262
a(I0
g124
tp263
a(I1
g129
tp264
a(I2
g144
tp265
a(I3
g144
tp266
a(I4
g124
tp267
a(I0
g124
tp268
a(I1
g129
tp269
a(I2
g144
tp270
a(I3
g144
tp271
a(I4
g124
tp272
a(I0
g124
tp273
a(I1
g124
tp274
a(I2
g144
tp275
a(I3
g144
tp276
a(I4
g124
tp277
a(I0
g124
tp278
a(I1
g124
tp279
a(I2
g124
tp280
a(I3
g144
tp281
a(I4
g124
tp282
a(I0
g144
tp283
a(I1
g124
tp284
a(I2
g124
tp285
a(I3
g144
tp286
a(I4
g124
tp287
a(I0
g144
tp288
a(I1
g129
tp289
a(I2
g124
tp290
a(I3
g144
tp291
a(I4
g126
tp292
a(I0
g144
tp293
a(I1
g129
tp294
a(I2
g124
tp295
a(I3
g124
tp296
a(I4
g126
tp297
a(I0
g126
tp298
a(I1
g129
tp299
a(I2
g124
tp300
a(I3
g124
tp301
a(I4
g126
tp302
a(I0
g126
tp303
a(I1
g129
tp304
a(I2
g124
tp305
a(I3
g124
tp306
a(I4
g126
tp307
a(I0
g144
tp308
a(I1
g129
tp309
a(I2
g124
tp310
a(I3
g124
tp311
a(I4
g126
tp312
a(I0
g144
tp313
a(I1
g124
tp314
a(I2
g129
tp315
a(I3
g124
tp316
a(I4
g126
tp317
a(I0
g144
tp318
a(I1
g124
tp319
a(I2
g129
tp320
a(I3
g124
tp321
a(I4
g126
tp322
a(I0
g126
tp323
a(I1
g124
tp324
a(I2
g129
tp325
a(I3
g124
tp326
a(I4
g126
tp327
a(I0
g126
tp328
a(I1
g124
tp329
a(I2
g129
tp330
a(I3
g124
tp331
a(I4
g126
tp332
a(I0
g126
tp333
a(I1
g124
tp334
a(I2
g129
tp335
a(I3
g124
tp336
a(I4
g126
tp337
a(I0
g129
tp338
a(I1
g124
tp339
a(I2
g129
tp340
a(I3
g124
tp341
a(I4
g126
tp342
a(I0
g129
tp343
a(I1
g124
tp344
a(I2
g129
tp345
a(I3
g129
tp346
a(I4
g126
tp347
a(I0
g129
tp348
a(I1
g124
tp349
a(I2
g129
tp350
a(I3
g129
tp351
a(I4
g126
tp352
a(I0
g126
tp353
a(I1
g124
tp354
a(I2
g129
tp355
a(I3
g129
tp356
a(I4
g144
tp357
a(I0
g126
tp358
a(I1
g124
tp359
a(I2
g129
tp360
a(I3
g129
tp361
a(I4
g144
tp362
a(I0
g126
tp363
a(I1
g124
tp364
a(I2
g129
tp365
a(I3
g129
tp366
a(I4
g144
tp367
a(I0
g126
tp368
a(I1
g124
tp369
a(I2
g129
tp370
a(I3
g129
tp371
a(I4
g144
tp372
a(I0
g126
tp373
a(I1
g124
tp374
a(I2
g129
tp375
a(I3
g124
tp376
a(I4
g144
tp377
a(I0
g126
tp378
a(I1
g124
tp379
a(I2
g129
tp380
a(I3
g124
tp381
a(I4
g144
tp382
a(I0
g129
tp383
a(I1
g124
tp384
a(I2
g126
tp385
a(I3
g124
tp386
a(I4
g144
tp387
a(I0
g129
tp388
a(I1
g124
tp389
a(I2
g126
tp390
a(I3
g124
tp391
a(I4
g144
tp392
a(I0
g129
tp393
a(I1
g144
tp394
a(I2
g126
tp395
a(I3
g124
tp396
a(I4
g126
tp397
a(I0
g124
tp398
a(I1
g144
tp399
a(I2
g126
tp400
a(I3
g124
tp401
a(I4
g126
tp402
a(I0
S'Stop'
p403
tp404
a(I1
g144
tp405
a(I2
g126
tp406
a(I3
g124
tp407
a(I4
g126
tp408
a(I0
g126
tp409
a(I1
g144
tp410
a(I2
g126
tp411
a(I3
g124
tp412
a(I4
g126
tp413
a(I0
g403
tp414
a(I1
g144
tp415
a(I2
g126
tp416
a(I3
g124
tp417
a(I4
g126
tp418
a(I0
g144
tp419
a(I1
g144
tp420
a(I2
g126
tp421
a(I3
g124
tp422
a(I4
g126
tp423
a(I0
g403
tp424
a(I1
g126
tp425
a(I2
g126
tp426
a(I3
g124
tp427
a(I4
g126
tp428
a(I0
g144
tp429
a(I1
g126
tp430
a(I2
g126
tp431
a(I3
g124
tp432
a(I4
g126
tp433
a(I0
g144
tp434
a(I1
g126
tp435
a(I2
g144
tp436
a(I3
g129
tp437
a(I4
g144
tp438
a(I0
g126
tp439
a(I1
g126
tp440
a(I2
g144
tp441
a(I3
g129
tp442
a(I4
g144
tp443
a(I0
g126
tp444
a(I1
g126
tp445
a(I2
g144
tp446
a(I3
g129
tp447
a(I4
g144
tp448
a(I0
g126
tp449
a(I1
g126
tp450
a(I2
g144
tp451
a(I3
g129
tp452
a(I4
g144
tp453
a(I0
g126
tp454
a(I1
g126
tp455
a(I2
g144
tp456
a(I3
g129
tp457
a(I4
g144
tp458
a(I0
g126
tp459
a(I1
g126
tp460
a(I2
g144
tp461
a(I3
g129
tp462
a(I4
g144
tp463
a(I0
g126
tp464
a(I1
g126
tp465
a(I2
g144
tp466
a(I3
g129
tp467
a(I4
g126
tp468
a(I0
g126
tp469
a(I1
g126
tp470
a(I2
g144
tp471
a(I3
g129
tp472
a(I4
g126
tp473
a(I0
g126
tp474
a(I1
g144
tp475
a(I2
g126
tp476
a(I3
g126
tp477
a(I4
g126
tp478
a(I0
g126
tp479
a(I1
g144
tp480
a(I2
g126
tp481
a(I3
g126
tp482
a(I4
g126
tp483
a(I0
g144
tp484
a(I1
g144
tp485
a(I2
g126
tp486
a(I3
g126
tp487
a(I4
g126
tp488
a(I0
g144
tp489
a(I1
g144
tp490
a(I2
g126
tp491
a(I3
g126
tp492
a(I4
g126
tp493
a(I0
g144
tp494
a(I1
g144
tp495
a(I2
g126
tp496
a(I3
g126
tp497
a(I4
g126
tp498
a(I0
g126
tp499
a(I1
g144
tp500
a(I2
g144
tp501
a(I3
g126
tp502
a(I4
g126
tp503
a(I0
g126
tp504
a(I1
g144
tp505
a(I2
g144
tp506
a(I3
g126
tp507
a(I4
g126
tp508
a(I0
g126
tp509
a(I1
g144
tp510
a(I2
g144
tp511
a(I3
g126
tp512
a(I4
g144
tp513
a(I0
g126
tp514
a(I1
g144
tp515
a(I2
g126
tp516
a(I3
g126
tp517
a(I4
g144
tp518
a(I0
g126
tp519
a(I1
g144
tp520
a(I2
g126
tp521
a(I3
g126
tp522
a(I4
g144
tp523
a(I0
g144
tp524
a(I1
g144
tp525
a(I2
g126
tp526
a(I3
g126
tp527
a(I4
g124
tp528
a(I0
g144
tp529
a(I1
g144
tp530
a(I2
g144
tp531
a(I3
g126
tp532
a(I4
g124
tp533
a(I0
g124
tp534
a(I1
g144
tp535
a(I2
g144
tp536
a(I3
g126
tp537
a(I4
g124
tp538
a(I0
g124
tp539
a(I1
g144
tp540
a(I2
g144
tp541
a(I3
g144
tp542
a(I4
g144
tp543
a(I0
g124
tp544
a(I1
g144
tp545
a(I2
g124
tp546
a(I3
g144
tp547
a(I4
g144
tp548
a(I0
g124
tp549
a(I1
g144
tp550
a(I2
g124
tp551
a(I3
g144
tp552
a(I4
g126
tp553
a(I0
g124
tp554
a(I1
g144
tp555
a(I2
g124
tp556
a(I3
g144
tp557
a(I4
g126
tp558
a(I0
g124
tp559
a(I1
g124
tp560
a(I2
g124
tp561
a(I3
g124
tp562
a(I4
g126
tp563
a(I0
g403
tp564
a(I1
g124
tp565
a(I2
g144
tp566
a(I3
g124
tp567
a(I4
g126
tp568
a(I0
g126
tp569
a(I1
g124
tp570
a(I2
g144
tp571
a(I3
g124
tp572
a(I4
g126
tp573
a(I0
g126
tp574
a(I1
g129
tp575
a(I2
g144
tp576
a(I3
g124
tp577
a(I4
g126
tp578
a(I0
g126
tp579
a(I1
g129
tp580
a(I2
g144
tp581
a(I3
g124
tp582
a(I4
g126
tp583
a(I0
g126
tp584
a(I1
g129
tp585
a(I2
g126
tp586
a(I3
g129
tp587
a(I4
g126
tp588
a(I0
g126
tp589
a(I1
g124
tp590
a(I2
g126
tp591
a(I3
g129
tp592
a(I4
g126
tp593
a(I0
g126
tp594
a(I1
g124
tp595
a(I2
g126
tp596
a(I3
g129
tp597
a(I4
g126
tp598
a(I0
g129
tp599
a(I1
g129
tp600
a(I2
g126
tp601
a(I3
g129
tp602
a(I4
g126
tp603
a(I0
g129
tp604
a(I1
g129
tp605
a(I2
g126
tp606
a(I3
g126
tp607
a(I4
g129
tp608
a(I0
g124
tp609
a(I1
g129
tp610
a(I2
g126
tp611
a(I3
g126
tp612
a(I4
g129
tp613
a(I0
g124
tp614
a(I1
g126
tp615
a(I2
g126
tp616
a(I3
g126
tp617
a(I4
g124
tp618
a(I0
g129
tp619
a(I1
g126
tp620
a(I2
g126
tp621
a(I3
g126
tp622
a(I4
g124
tp623
a(I0
g129
tp624
a(I1
g126
tp625
a(I2
g126
tp626
a(I3
g126
tp627
a(I4
g129
tp628
a(I0
g129
tp629
a(I1
g126
tp630
a(I2
g126
tp631
a(I3
g144
tp632
a(I4
g129
tp633
a(I0
g126
tp634
a(I1
g126
tp635
a(I2
g126
tp636
a(I3
g144
tp637
a(I4
g129
tp638
a(I0
g126
tp639
a(I1
g126
tp640
a(I2
g129
tp641
a(I3
g144
tp642
a(I4
g126
tp643
a(I0
g129
tp644
a(I1
g126
tp645
a(I2
g129
tp646
a(I3
g144
tp647
a(I4
g126
tp648
a(I0
g129
tp649
a(I1
g126
tp650
a(I2
g129
tp651
a(I3
g144
tp652
a(I4
g126
tp653
a(I0
g129
tp654
a(I1
g126
tp655
a(I2
g129
tp656
a(I3
g144
tp657
a(I4
g126
tp658
a(I0
g124
tp659
a(I1
g126
tp660
a(I2
g129
tp661
a(I3
g144
tp662
a(I4
g129
tp663
a(I0
g124
tp664
a(I1
g126
tp665
a(I2
g129
tp666
a(I3
g144
tp667
a(I4
g129
tp668
a(I0
g124
tp669
a(I1
g126
tp670
a(I2
g129
tp671
a(I3
g144
tp672
a(I4
g129
tp673
a(I0
g124
tp674
a(I1
g126
tp675
a(I2
g129
tp676
a(I3
g144
tp677
a(I4
g129
tp678
a(I0
g124
tp679
a(I1
g126
tp680
a(I2
g124
tp681
a(I3
g144
tp682
a(I4
g129
tp683
a(I0
g124
tp684
a(I1
g126
tp685
a(I2
g124
tp686
a(I3
g144
tp687
a(I4
g129
tp688
a(I0
g124
tp689
a(I1
g126
tp690
a(I2
g124
tp691
a(I3
g124
tp692
a(I4
g124
tp693
a(I0
g124
tp694
a(I1
g126
tp695
a(I2
g124
tp696
a(I3
g124
tp697
a(I4
g124
tp698
a(I0
g124
tp699
a(I1
g144
tp700
a(I2
g124
tp701
a(I3
g124
tp702
a(I4
g124
tp703
a(I0
g124
tp704
a(I1
g144
tp705
a(I2
g124
tp706
a(I3
g124
tp707
a(I4
g124
tp708
a(I0
g124
tp709
a(I1
g144
tp710
a(I2
g124
tp711
a(I3
g124
tp712
a(I4
g124
tp713
a(I0
g144
tp714
a(I1
g144
tp715
a(I2
g124
tp716
a(I3
g124
tp717
a(I4
g124
tp718
a(I0
g144
tp719
a(I1
g144
tp720
a(I2
g129
tp721
a(I3
g124
tp722
a(I4
g124
tp723
a(I0
g144
tp724
a(I1
g144
tp725
a(I2
g129
tp726
a(I3
g124
tp727
a(I4
g124
tp728
a(I0
g126
tp729
a(I1
g126
tp730
a(I2
g129
tp731
a(I3
g124
tp732
a(I4
g124
tp733
a(I0
g126
tp734
a(I1
g126
tp735
a(I2
g129
tp736
a(I3
g124
tp737
a(I4
g124
tp738
a(I0
g126
tp739
a(I1
g126
tp740
a(I2
g129
tp741
a(I3
g129
tp742
a(I4
g129
tp743
a(I0
g144
tp744
a(I1
g126
tp745
a(I2
g129
tp746
a(I3
g129
tp747
a(I4
g129
tp748
a(I0
g144
tp749
a(I1
g126
tp750
a(I2
g126
tp751
a(I3
g129
tp752
a(I4
g129
tp753
a(I0
g144
tp754
a(I1
g126
tp755
a(I2
g126
tp756
a(I3
g129
tp757
a(I4
g129
tp758
a(I0
g124
tp759
a(I1
g126
tp760
a(I2
g126
tp761
a(I3
g129
tp762
a(I4
g129
tp763
a(I0
g124
tp764
a(I1
g126
tp765
a(I2
g126
tp766
a(I3
g129
tp767
a(I4
g129
tp768
a(I0
g124
tp769
a(I1
g126
tp770
a(I2
g126
tp771
a(I3
g124
tp772
a(I4
g129
tp773
a(I0
g144
tp774
a(I1
g126
tp775
a(I2
g126
tp776
a(I3
g124
tp777
a(I4
g129
tp778
a(I0
g144
tp779
a(I1
g126
tp780
a(I2
g129
tp781
a(I3
g124
tp782
a(I4
g126
tp783
a(I0
g126
tp784
a(I1
g126
tp785
a(I2
g129
tp786
a(I3
g124
tp787
a(I4
g126
tp788
a(I0
g126
tp789
a(I1
g144
tp790
a(I2
g129
tp791
a(I3
g124
tp792
a(I4
g126
tp793
a(I0
g126
tp794
a(I1
g144
tp795
a(I2
g129
tp796
a(I3
g124
tp797
a(I4
g126
tp798
a(I0
g126
tp799
a(I1
g144
tp800
a(I2
g129
tp801
a(I3
g144
tp802
a(I4
g126
tp803
a(I0
g124
tp804
a(I1
g144
tp805
a(I2
g129
tp806
a(I3
g144
tp807
a(I4
g126
tp808
a(I0
g124
tp809
a(I1
g144
tp810
a(I2
g126
tp811
a(I3
g144
tp812
a(I4
g126
tp813
a(I0
g124
tp814
a(I1
g144
tp815
a(I2
g126
tp816
a(I3
g144
tp817
a(I4
g126
tp818
a(I0
g124
tp819
a(I1
g124
tp820
a(I2
g126
tp821
a(I3
g144
tp822
a(I4
g126
tp823
a(I0
g124
tp824
a(I1
g124
tp825
a(I2
g126
tp826
a(I3
g144
tp827
a(I4
g126
tp828
a(I0
g124
tp829
a(I1
g124
tp830
a(I2
g126
tp831
a(I3
g124
tp832
a(I4
g124
tp833
a(I0
g124
tp834
a(I1
g124
tp835
a(I2
g126
tp836
a(I3
g124
tp837
a(I4
g124
tp838
a(I0
g129
tp839
a(I1
g124
tp840
a(I2
g129
tp841
a(I3
g124
tp842
a(I4
g124
tp843
a(I0
g129
tp844
a(I1
g144
tp845
a(I2
g129
tp846
a(I3
g124
tp847
a(I4
g124
tp848
a(I0
g124
tp849
a(I1
g144
tp850
a(I2
g129
tp851
a(I3
g144
tp852
a(I4
g124
tp853
a(I0
g124
tp854
a(I1
g126
tp855
a(I2
g129
tp856
a(I3
g144
tp857
a(I4
g124
tp858
a(I0
g124
tp859
a(I1
g126
tp860
a(I2
g126
tp861
a(I3
g144
tp862
a(I4
g129
tp863
a(I0
g129
tp864
a(I1
g126
tp865
a(I2
g126
tp866
a(I3
g124
tp867
a(I4
g129
tp868
a(I0
g129
tp869
a(I1
g126
tp870
a(I2
g126
tp871
a(I3
g144
tp872
a(I4
g129
tp873
a(I0
g129
tp874
a(I1
g126
tp875
a(I2
g126
tp876
a(I3
g124
tp877
a(I4
g129
tp878
a(I0
g124
tp879
a(I1
g126
tp880
a(I2
g126
tp881
a(I3
g144
tp882
a(I4
g129
tp883
a(I0
g124
tp884
a(I1
g126
tp885
a(I2
g144
tp886
a(I3
g124
tp887
a(I4
g126
tp888
a(I0
g124
tp889
a(I1
g126
tp890
a(I2
g144
tp891
a(I3
g124
tp892
a(I4
g126
tp893
a(I0
g129
tp894
a(I1
g126
tp895
a(I2
g144
tp896
a(I3
g124
tp897
a(I4
g126
tp898
a(I0
g129
tp899
a(I1
g126
tp900
a(I2
g144
tp901
a(I3
g126
tp902
a(I4
g126
tp903
a(I0
g129
tp904
a(I1
g126
tp905
a(I2
g124
tp906
a(I3
g126
tp907
a(I4
g126
tp908
a(I0
g126
tp909
a(I1
g129
tp910
a(I2
g124
tp911
a(I3
g126
tp912
a(I4
g129
tp913
a(I0
g126
tp914
a(I1
g129
tp915
a(I2
g124
tp916
a(I3
g126
tp917
a(I4
g129
tp918
a(I0
g126
tp919
a(I1
g124
tp920
a(I2
g124
tp921
a(I3
g129
tp922
a(I4
g129
tp923
a(I0
g126
tp924
a(I1
g124
tp925
a(I2
g124
tp926
a(I3
g124
tp927
a(I4
g124
tp928
a(I0
g124
tp929
a(I1
g129
tp930
a(I2
g144
tp931
a(I3
g129
tp932
a(I4
g124
tp933
a(I0
g124
tp934
a(I1
g129
tp935
a(I2
g144
tp936
a(I3
g124
tp937
a(I4
g124
tp938
a(I0
g124
tp939
a(I1
g129
tp940
a(I2
g144
tp941
a(I3
g129
tp942
a(I4
g124
tp943
a(I0
g124
tp944
a(I1
g126
tp945
a(I2
g144
tp946
a(I3
g129
tp947
a(I4
g124
tp948
a(I0
g129
tp949
a(I1
g126
tp950
a(I2
g144
tp951
a(I3
g129
tp952
a(I4
g129
tp953
a(I0
g129
tp954
a(I1
g129
tp955
a(I2
g144
tp956
a(I3
g124
tp957
a(I4
g129
tp958
a(I0
g129
tp959
a(I1
g129
tp960
a(I2
g144
tp961
a(I3
g124
tp962
a(I4
g129
tp963
a(I0
g129
tp964
a(I1
g129
tp965
a(I2
g144
tp966
a(I3
g124
tp967
a(I4
g129
tp968
a(I0
g129
tp969
a(I1
g124
tp970
a(I2
g124
tp971
a(I3
g129
tp972
a(I4
g124
tp973
a(I0
g129
tp974
a(I1
g124
tp975
a(I2
g124
tp976
a(I3
g129
tp977
a(I4
g124
tp978
a(I0
g129
tp979
a(I1
g124
tp980
a(I2
g144
tp981
a(I3
g129
tp982
a(I4
g124
tp983
a(I0
g129
tp984
a(I1
g124
tp985
a(I2
g144
tp986
a(I3
g124
tp987
a(I4
g124
tp988
a(I0
g129
tp989
a(I1
g124
tp990
a(I2
g124
tp991
a(I3
g124
tp992
a(I4
g124
tp993
a(I0
g124
tp994
a(I1
g129
tp995
a(I2
g124
tp996
a(I3
g124
tp997
a(I4
g124
tp998
a(I0
g124
tp999
a(I1
g129
tp1000
a(I2
g124
tp1001
a(I3
g124
tp1002
a(I4
g144
tp1003
a(I0
g124
tp1004
a(I1
g129
tp1005
a(I2
g124
tp1006
a(I3
g124
tp1007
a(I4
g144
tp1008
a(I0
g124
tp1009
a(I1
g129
tp1010
a(I2
g124
tp1011
a(I3
g124
tp1012
a(I4
g144
tp1013
a(I0
g124
tp1014
a(I1
g126
tp1015
a(I2
g124
tp1016
a(I3
g124
tp1017
a(I4
g144
tp1018
a(I0
g129
tp1019
a(I1
g126
tp1020
a(I2
g124
tp1021
a(I3
g124
tp1022
a(I4
g124
tp1023
a(I0
g403
tp1024
a(I1
g126
tp1025
a(I2
g124
tp1026
a(I3
g129
tp1027
a(I4
g124
tp1028
a(I0
g129
tp1029
a(I1
g126
tp1030
a(I2
g124
tp1031
a(I3
g129
tp1032
a(I4
g124
tp1033
a(I0
g129
tp1034
a(I1
g126
tp1035
a(I2
g124
tp1036
a(I3
g129
tp1037
a(I4
g129
tp1038
a(I0
g129
tp1039
a(I1
g124
tp1040
a(I2
g124
tp1041
a(I3
g129
tp1042
a(I4
g129
tp1043
a(I0
g129
tp1044
a(I1
g124
tp1045
a(I2
g129
tp1046
a(I3
g126
tp1047
a(I4
g129
tp1048
a(I0
g129
tp1049
a(I1
g124
tp1050
a(I2
g129
tp1051
a(I3
g126
tp1052
a(I4
g129
tp1053
a(I0
g403
tp1054
a(I1
g124
tp1055
a(I2
g129
tp1056
a(I3
g126
tp1057
a(I4
g129
tp1058
a(I0
g129
tp1059
a(I1
g124
tp1060
a(I2
g129
tp1061
a(I3
g126
tp1062
a(I4
g129
tp1063
a(I0
g403
tp1064
a(I1
g124
tp1065
a(I2
g124
tp1066
a(I3
g126
tp1067
a(I4
g124
tp1068
a(I0
g126
tp1069
a(I1
g124
tp1070
a(I2
g124
tp1071
a(I3
g126
tp1072
a(I4
g124
tp1073
a(I0
g403
tp1074
a(I1
g124
tp1075
a(I2
g124
tp1076
a(I3
g126
tp1077
a(I4
g124
tp1078
a(I0
g126
tp1079
a(I1
g124
tp1080
a(I2
g124
tp1081
a(I3
g126
tp1082
a(I4
g124
tp1083
a(I0
g403
tp1084
a(I1
g129
tp1085
a(I2
g129
tp1086
a(I3
g126
tp1087
a(I4
g124
tp1088
a(I0
g126
tp1089
a(I1
g129
tp1090
a(I2
g129
tp1091
a(I3
g126
tp1092
a(I4
g124
tp1093
a(I0
g403
tp1094
a(I1
g129
tp1095
a(I2
g129
tp1096
a(I3
g126
tp1097
a(I4
g124
tp1098
a(I0
g126
tp1099
a(I1
g129
tp1100
a(I2
g129
tp1101
a(I3
g126
tp1102
a(I4
g124
tp1103
a(I0
g403
tp1104
a(I1
g129
tp1105
a(I2
g129
tp1106
a(I3
g126
tp1107
a(I4
g124
tp1108
a(I0
g126
tp1109
a(I1
g129
tp1110
a(I2
g129
tp1111
a(I3
g126
tp1112
a(I4
g124
tp1113
a(I0
g144
tp1114
a(I1
g129
tp1115
a(I2
g129
tp1116
a(I3
g126
tp1117
a(I4
g124
tp1118
a(I0
g144
tp1119
a(I1
g129
tp1120
a(I2
g129
tp1121
a(I3
g126
tp1122
a(I4
g124
tp1123
a(I0
g144
tp1124
a(I1
g129
tp1125
a(I2
g129
tp1126
a(I3
g126
tp1127
a(I4
g124
tp1128
a(I0
g144
tp1129
a(I1
g129
tp1130
a(I2
g129
tp1131
a(I3
g126
tp1132
a(I4
g124
tp1133
a(I0
g124
tp1134
a(I1
g129
tp1135
a(I2
g129
tp1136
a(I3
g126
tp1137
a(I4
g124
tp1138
a(I0
g124
tp1139
a(I1
g129
tp1140
a(I2
g129
tp1141
a(I3
g126
tp1142
a(I4
g124
tp1143
a(I0
g124
tp1144
a(I1
g129
tp1145
a(I2
g129
tp1146
a(I3
g126
tp1147
a(I4
g124
tp1148
a(I0
g124
tp1149
a(I1
g129
tp1150
a(I2
g129
tp1151
a(I3
g126
tp1152
a(I4
g124
tp1153
a(I0
g126
tp1154
a(I1
g129
tp1155
a(I2
g129
tp1156
a(I3
g144
tp1157
a(I4
g124
tp1158
a(I0
g126
tp1159
a(I1
g129
tp1160
a(I2
g129
tp1161
a(I3
g144
tp1162
a(I4
g124
tp1163
a(I0
g403
tp1164
a(I1
g129
tp1165
a(I2
g124
tp1166
a(I3
g144
tp1167
a(I4
g124
tp1168
a(I0
g403
tp1169
a(I1
g129
tp1170
a(I2
g124
tp1171
a(I3
g144
tp1172
a(I4
g124
tp1173
a(I0
g124
tp1174
a(I1
g129
tp1175
a(I2
g124
tp1176
a(I3
g144
tp1177
a(I4
g144
tp1178
a(I0
g403
tp1179
a(I1
g129
tp1180
a(I2
g124
tp1181
a(I3
g144
tp1182
a(I4
g144
tp1183
a(I0
g124
tp1184
a(I1
g129
tp1185
a(I2
g124
tp1186
a(I3
g144
tp1187
a(I4
g144
tp1188
a(I0
g403
tp1189
a(I1
g129
tp1190
a(I2
g124
tp1191
a(I3
g144
tp1192
a(I4
g144
tp1193
a(I0
g124
tp1194
a(I1
g129
tp1195
a(I2
g124
tp1196
a(I3
g126
tp1197
a(I4
g144
tp1198
a(I0
g403
tp1199
a(I1
g129
tp1200
a(I2
g124
tp1201
a(I3
g126
tp1202
a(I4
g144
tp1203
a(I0
g144
tp1204
a(I1
g124
tp1205
a(I2
g124
tp1206
a(I3
g126
tp1207
a(I4
g144
tp1208
a(I0
g403
tp1209
a(I1
g124
tp1210
a(I2
g124
tp1211
a(I3
g126
tp1212
a(I4
g144
tp1213
a(I0
g144
tp1214
a(I1
g124
tp1215
a(I2
g144
tp1216
a(I3
g126
tp1217
a(I4
g144
tp1218
a(I0
g144
tp1219
a(I1
g124
tp1220
a(I2
g144
tp1221
a(I3
g126
tp1222
a(I4
g144
tp1223
a(I0
g126
tp1224
a(I1
g124
tp1225
a(I2
g144
tp1226
a(I3
g126
tp1227
a(I4
g144
tp1228
a(I0
g126
tp1229
a(I1
g124
tp1230
a(I2
g144
tp1231
a(I3
g126
tp1232
a(I4
g144
tp1233
a(I0
g126
tp1234
a(I1
g124
tp1235
a(I2
g144
tp1236
a(I3
g126
tp1237
a(I4
g144
tp1238
a(I0
g126
tp1239
a(I1
g124
tp1240
a(I2
g144
tp1241
a(I3
g126
tp1242
a(I4
g144
tp1243
a(I0
g126
tp1244
a(I1
g124
tp1245
a(I2
g126
tp1246
a(I3
g126
tp1247
a(I4
g126
tp1248
a(I0
g129
tp1249
a(I1
g124
tp1250
a(I2
g126
tp1251
a(I3
g126
tp1252
a(I4
g126
tp1253
a(I0
g129
tp1254
a(I1
g144
tp1255
a(I2
g126
tp1256
a(I3
g126
tp1257
a(I4
g126
tp1258
a(I0
g129
tp1259
a(I1
g144
tp1260
a(I2
g126
tp1261
a(I3
g126
tp1262
a(I4
g126
tp1263
a(I0
g126
tp1264
a(I1
g144
tp1265
a(I2
g126
tp1266
a(I3
g144
tp1267
a(I4
g126
tp1268
a(I0
g126
tp1269
a(I1
g144
tp1270
a(I2
g129
tp1271
a(I3
g144
tp1272
a(I4
g144
tp1273
a(I0
g126
tp1274
a(I1
g126
tp1275
a(I2
g129
tp1276
a(I3
g144
tp1277
a(I4
g144
tp1278
a(I0
g126
tp1279
a(I1
g126
tp1280
a(I2
g129
tp1281
a(I3
g126
tp1282
a(I4
g144
tp1283
a(I0
g126
tp1284
a(I1
g126
tp1285
a(I2
g129
tp1286
a(I3
g126
tp1287
a(I4
g144
tp1288
a(I0
g126
tp1289
a(I1
g126
tp1290
a(I2
g129
tp1291
a(I3
g126
tp1292
a(I4
g144
tp1293
a(I0
g126
tp1294
a(I1
g126
tp1295
a(I2
g129
tp1296
a(I3
g126
tp1297
a(I4
g124
tp1298
a(I0
g126
tp1299
a(I1
g126
tp1300
a(I2
g129
tp1301
a(I3
g126
tp1302
a(I4
g124
tp1303
a(I0
g126
tp1304
a(I1
g126
tp1305
a(I2
g124
tp1306
a(I3
g129
tp1307
a(I4
g124
tp1308
a(I0
g126
tp1309
a(I1
g126
tp1310
a(I2
g124
tp1311
a(I3
g129
tp1312
a(I4
g124
tp1313
a(I0
g126
tp1314
a(I1
g126
tp1315
a(I2
g124
tp1316
a(I3
g129
tp1317
a(I4
g124
tp1318
a(I0
g126
tp1319
a(I1
g126
tp1320
a(I2
g124
tp1321
a(I3
g124
tp1322
a(I4
g126
tp1323
a(I0
g126
tp1324
a(I1
g126
tp1325
a(I2
g124
tp1326
a(I3
g124
tp1327
a(I4
g126
tp1328
a(I0
g126
tp1329
a(I1
g129
tp1330
a(I2
g144
tp1331
a(I3
g124
tp1332
a(I4
g126
tp1333
a(I0
g126
tp1334
a(I1
g129
tp1335
a(I2
g144
tp1336
a(I3
g124
tp1337
a(I4
g126
tp1338
a(I0
g144
tp1339
a(I1
g129
tp1340
a(I2
g144
tp1341
a(I3
g124
tp1342
a(I4
g126
tp1343
a(I0
g144
tp1344
a(I1
g129
tp1345
a(I2
g144
tp1346
a(I3
g129
tp1347
a(I4
g126
tp1348
a(I0
g144
tp1349
a(I1
g124
tp1350
a(I2
g144
tp1351
a(I3
g129
tp1352
a(I4
g126
tp1353
a(I0
g126
tp1354
a(I1
g124
tp1355
a(I2
g144
tp1356
a(I3
g129
tp1357
a(I4
g129
tp1358
a(I0
g126
tp1359
a(I1
g124
tp1360
a(I2
g144
tp1361
a(I3
g129
tp1362
a(I4
g129
tp1363
a(I0
g126
tp1364
a(I1
g124
tp1365
a(I2
g126
tp1366
a(I3
g126
tp1367
a(I4
g126
tp1368
a(I0
g126
tp1369
a(I1
g124
tp1370
a(I2
g126
tp1371
a(I3
g126
tp1372
a(I4
g126
tp1373
a(I0
g126
tp1374
a(I1
g124
tp1375
a(I2
g126
tp1376
a(I3
g126
tp1377
a(I4
g126
tp1378
a(I0
g129
tp1379
a(I1
g124
tp1380
a(I2
g126
tp1381
a(I3
g126
tp1382
a(I4
g126
tp1383
a(I0
g129
tp1384
a(I1
g124
tp1385
a(I2
g126
tp1386
a(I3
g126
tp1387
a(I4
g129
tp1388
a(I0
g129
tp1389
a(I1
g124
tp1390
a(I2
g129
tp1391
a(I3
g144
tp1392
a(I4
g129
tp1393
a(I0
g124
tp1394
a(I1
g124
tp1395
a(I2
g129
tp1396
a(I3
g144
tp1397
a(I4
g129
tp1398
a(I0
g124
tp1399
a(I1
g124
tp1400
a(I2
g129
tp1401
a(I3
g144
tp1402
a(I4
g124
tp1403
a(I0
g124
tp1404
a(I1
g144
tp1405
a(I2
g124
tp1406
a(I3
g144
tp1407
a(I4
g124
tp1408
a(I0
g124
tp1409
a(I1
g144
tp1410
a(I2
g124
tp1411
a(I3
g124
tp1412
a(I4
g124
tp1413
a(I0
g124
tp1414
a(I1
g144
tp1415
a(I2
g124
tp1416
a(I3
g124
tp1417
a(I4
g129
tp1418
a(I0
g129
tp1419
a(I1
g144
tp1420
a(I2
g124
tp1421
a(I3
g124
tp1422
a(I4
g129
tp1423
a(I0
g129
tp1424
a(I1
g124
tp1425
a(I2
g124
tp1426
a(I3
g124
tp1427
a(I4
g129
tp1428
a(I0
g129
tp1429
a(I1
g124
tp1430
a(I2
g144
tp1431
a(I3
g124
tp1432
a(I4
g124
tp1433
a(I0
g129
tp1434
a(I1
g124
tp1435
a(I2
g144
tp1436
a(I3
g129
tp1437
a(I4
g124
tp1438
a(I0
g124
tp1439
a(I1
g124
tp1440
a(I2
g144
tp1441
a(I3
g129
tp1442
a(I4
g124
tp1443
a(I0
g124
tp1444
a(I1
g124
tp1445
a(I2
g126
tp1446
a(I3
g129
tp1447
a(I4
g144
tp1448
a(I0
g124
tp1449
a(I1
g124
tp1450
a(I2
g126
tp1451
a(I3
g129
tp1452
a(I4
g144
tp1453
a(I0
g124
tp1454
a(I1
g124
tp1455
a(I2
g126
tp1456
a(I3
g126
tp1457
a(I4
g144
tp1458
a(I0
g124
tp1459
a(I1
g124
tp1460
a(I2
g126
tp1461
a(I3
g126
tp1462
a(I4
g124
tp1463
a(I0
g124
tp1464
a(I1
g124
tp1465
a(I2
g126
tp1466
a(I3
g126
tp1467
a(I4
g124
tp1468
a(I0
g144
tp1469
a(I1
g144
tp1470
a(I2
g129
tp1471
a(I3
g126
tp1472
a(I4
g124
tp1473
a(I0
g144
tp1474
a(I1
g144
tp1475
a(I2
g129
tp1476
a(I3
g126
tp1477
a(I4
g124
tp1478
a(I0
g144
tp1479
a(I1
g144
tp1480
a(I2
g129
tp1481
a(I3
g144
tp1482
a(I4
g124
tp1483
a(I0
g144
tp1484
a(I1
g124
tp1485
a(I2
g124
tp1486
a(I3
g144
tp1487
a(I4
g129
tp1488
a(I0
g124
tp1489
a(I1
g124
tp1490
a(I2
g124
tp1491
a(I3
g144
tp1492
a(I4
g129
tp1493
a(I0
g124
tp1494
a(I1
g124
tp1495
a(I2
g124
tp1496
a(I3
g144
tp1497
a(I4
g129
tp1498
a(I0
g124
tp1499
a(I1
g124
tp1500
a(I2
g124
tp1501
a(I3
g124
tp1502
a(I4
g129
tp1503
a(I0
g129
tp1504
a(I1
g124
tp1505
a(I2
g124
tp1506
a(I3
g124
tp1507
a(I4
g129
tp1508
a(I0
g129
tp1509
a(I1
g129
tp1510
a(I2
g129
tp1511
a(I3
g124
tp1512
a(I4
g129
tp1513
a(I0
g129
tp1514
a(I1
g129
tp1515
a(I2
g129
tp1516
a(I3
g124
tp1517
a(I4
g129
tp1518
a(I0
g129
tp1519
a(I1
g129
tp1520
a(I2
g129
tp1521
a(I3
g124
tp1522
a(I4
g126
tp1523
a(I0
g124
tp1524
a(I1
g129
tp1525
a(I2
g129
tp1526
a(I3
g129
tp1527
a(I4
g126
tp1528
a(I0
g124
tp1529
a(I1
g129
tp1530
a(I2
g126
tp1531
a(I3
g129
tp1532
a(I4
g126
tp1533
a(I0
g124
tp1534
a(I1
g129
tp1535
a(I2
g126
tp1536
a(I3
g129
tp1537
a(I4
g126
tp1538
a(I0
g124
tp1539
a(I1
g129
tp1540
a(I2
g126
tp1541
a(I3
g129
tp1542
a(I4
g126
tp1543
a(I0
g403
tp1544
a(I1
g126
tp1545
a(I2
g126
tp1546
a(I3
g124
tp1547
a(I4
g144
tp1548
a(I0
g124
tp1549
a(I1
g126
tp1550
a(I2
g126
tp1551
a(I3
g124
tp1552
a(I4
g144
tp1553
a(I0
g126
tp1554
a(I1
g126
tp1555
a(I2
g144
tp1556
a(I3
g124
tp1557
a(I4
g144
tp1558
a(I0
g124
tp1559
a(I1
g126
tp1560
a(I2
g144
tp1561
a(I3
g124
tp1562
a(I4
g144
tp1563
a(I0
g403
tp1564
a(I1
g126
tp1565
a(I2
g144
tp1566
a(I3
g124
tp1567
a(I4
g144
tp1568
a(I0
g126
tp1569
a(I1
g144
tp1570
a(I2
g144
tp1571
a(I3
g124
tp1572
a(I4
g144
tp1573
a(I0
g124
tp1574
a(I1
g144
tp1575
a(I2
g144
tp1576
a(I3
g144
tp1577
a(I4
g144
tp1578
a(I0
g124
tp1579
a(I1
g144
tp1580
a(I2
g144
tp1581
a(I3
g144
tp1582
a(I4
g124
tp1583
a(I0
g144
tp1584
a(I1
g144
tp1585
a(I2
g144
tp1586
a(I3
g144
tp1587
a(I4
g124
tp1588
a(I0
g144
tp1589
a(I1
g124
tp1590
a(I2
g144
tp1591
a(I3
g144
tp1592
a(I4
g124
tp1593
a(I0
g144
tp1594
a(I1
g124
tp1595
a(I2
g144
tp1596
a(I3
g124
tp1597
a(I4
g124
tp1598
a(I0
g144
tp1599
a(I1
g124
tp1600
a(I2
g144
tp1601
a(I3
g124
tp1602
a(I4
g124
tp1603
a(I0
g126
tp1604
a(I1
g124
tp1605
a(I2
g144
tp1606
a(I3
g124
tp1607
a(I4
g129
tp1608
a(I0
g126
tp1609
a(I1
g124
tp1610
a(I2
g144
tp1611
a(I3
g124
tp1612
a(I4
g129
tp1613
a(I0
g126
tp1614
a(I1
g144
tp1615
a(I2
g144
tp1616
a(I3
g124
tp1617
a(I4
g129
tp1618
a(I0
g144
tp1619
a(I1
g144
tp1620
a(I2
g144
tp1621
a(I3
g124
tp1622
a(I4
g129
tp1623
a(I0
g144
tp1624
a(I1
g144
tp1625
a(I2
g144
tp1626
a(I3
g124
tp1627
a(I4
g129
tp1628
a(I0
g144
tp1629
a(I1
g126
tp1630
a(I2
g144
tp1631
a(I3
g124
tp1632
a(I4
g129
tp1633
a(I0
g126
tp1634
a(I1
g126
tp1635
a(I2
g144
tp1636
a(I3
g124
tp1637
a(I4
g129
tp1638
a(I0
g126
tp1639
a(I1
g126
tp1640
a(I2
g144
tp1641
a(I3
g129
tp1642
a(I4
g126
tp1643
a(I0
g126
tp1644
a(I1
g126
tp1645
a(I2
g144
tp1646
a(I3
g129
tp1647
a(I4
g126
tp1648
a(I0
g144
tp1649
a(I1
g126
tp1650
a(I2
g126
tp1651
a(I3
g129
tp1652
a(I4
g126
tp1653
a(I0
g144
tp1654
a(I1
g144
tp1655
a(I2
g126
tp1656
a(I3
g129
tp1657
a(I4
g126
tp1658
a(I0
g144
tp1659
a(I1
g144
tp1660
a(I2
g126
tp1661
a(I3
g124
tp1662
a(I4
g126
tp1663
a(I0
g126
tp1664
a(I1
g144
tp1665
a(I2
g126
tp1666
a(I3
g124
tp1667
a(I4
g126
tp1668
a(I0
g126
tp1669
a(I1
g144
tp1670
a(I2
g126
tp1671
a(I3
g124
tp1672
a(I4
g126
tp1673
a(I0
g126
tp1674
a(I1
g144
tp1675
a(I2
g126
tp1676
a(I3
g124
tp1677
a(I4
g126
tp1678
a(I0
g129
tp1679
a(I1
g144
tp1680
a(I2
g126
tp1681
a(I3
g124
tp1682
a(I4
g126
tp1683
a(I0
g129
tp1684
a(I1
g144
tp1685
a(I2
g126
tp1686
a(I3
g144
tp1687
a(I4
g126
tp1688
a(I0
g129
tp1689
a(I1
g144
tp1690
a(I2
g126
tp1691
a(I3
g144
tp1692
a(I4
g126
tp1693
a(I0
g126
tp1694
a(I1
g144
tp1695
a(I2
g129
tp1696
a(I3
g144
tp1697
a(I4
g144
tp1698
a(I0
g126
tp1699
a(I1
g126
tp1700
a(I2
g129
tp1701
a(I3
g144
tp1702
a(I4
g144
tp1703
a(I0
g126
tp1704
a(I1
g126
tp1705
a(I2
g129
tp1706
a(I3
g144
tp1707
a(I4
g144
tp1708
a(I0
g129
tp1709
a(I1
g126
tp1710
a(I2
g126
tp1711
a(I3
g144
tp1712
a(I4
g144
tp1713
a(I0
g129
tp1714
a(I1
g126
tp1715
a(I2
g126
tp1716
a(I3
g144
tp1717
a(I4
g124
tp1718
a(I0
g129
tp1719
a(I1
g126
tp1720
a(I2
g126
tp1721
a(I3
g126
tp1722
a(I4
g124
tp1723
a(I0
g126
tp1724
a(I1
g126
tp1725
a(I2
g126
tp1726
a(I3
g126
tp1727
a(I4
g124
tp1728
a(I0
g126
tp1729
a(I1
g144
tp1730
a(I2
g129
tp1731
a(I3
g126
tp1732
a(I4
g144
tp1733
a(I0
g126
tp1734
a(I1
g144
tp1735
a(I2
g129
tp1736
a(I3
g126
tp1737
a(I4
g144
tp1738
a(I0
g144
tp1739
a(I1
g144
tp1740
a(I2
g129
tp1741
a(I3
g126
tp1742
a(I4
g144
tp1743
a(I0
g144
tp1744
a(I1
g124
tp1745
a(I2
g129
tp1746
a(I3
g144
tp1747
a(I4
g126
tp1748
a(I0
g144
tp1749
a(I1
g124
tp1750
a(I2
g126
tp1751
a(I3
g144
tp1752
a(I4
g126
tp1753
a(I0
g144
tp1754
a(I1
g124
tp1755
a(I2
g126
tp1756
a(I3
g144
tp1757
a(I4
g126
tp1758
a(I0
g144
tp1759
a(I1
g144
tp1760
a(I2
g126
tp1761
a(I3
g144
tp1762
a(I4
g144
tp1763
a(I0
g144
tp1764
a(I1
g144
tp1765
a(I2
g126
tp1766
a(I3
g144
tp1767
a(I4
g144
tp1768
a(I0
g144
tp1769
a(I1
g144
tp1770
a(I2
g126
tp1771
a(I3
g144
tp1772
a(I4
g144
tp1773
a(I0
g144
tp1774
a(I1
g126
tp1775
a(I2
g126
tp1776
a(I3
g144
tp1777
a(I4
g124
tp1778
a(I0
g144
tp1779
a(I1
g126
tp1780
a(I2
g126
tp1781
a(I3
g144
tp1782
a(I4
g124
tp1783
a(I0
g144
tp1784
a(I1
g126
tp1785
a(I2
g124
tp1786
a(I3
g144
tp1787
a(I4
g124
tp1788
a(I0
g144
tp1789
a(I1
g144
tp1790
a(I2
g124
tp1791
a(I3
g126
tp1792
a(I4
g124
tp1793
a(I0
g144
tp1794
a(I1
g144
tp1795
a(I2
g124
tp1796
a(I3
g126
tp1797
a(I4
g144
tp1798
a(I0
g144
tp1799
a(I1
g126
tp1800
a(I2
g124
tp1801
a(I3
g126
tp1802
a(I4
g144
tp1803
a(I0
g144
tp1804
a(I1
g126
tp1805
a(I2
g124
tp1806
a(I3
g126
tp1807
a(I4
g124
tp1808
a(I0
g129
tp1809
a(I1
g126
tp1810
a(I2
g144
tp1811
a(I3
g126
tp1812
a(I4
g124
tp1813
a(I0
g129
tp1814
a(I1
g126
tp1815
a(I2
g144
tp1816
a(I3
g126
tp1817
a(I4
g129
tp1818
a(I0
g403
tp1819
a(I1
g126
tp1820
a(I2
g144
tp1821
a(I3
g144
tp1822
a(I4
g129
tp1823
a(I0
g124
tp1824
a(I1
g126
tp1825
a(I2
g144
tp1826
a(I3
g144
tp1827
a(I4
g129
tp1828
a(I0
g124
tp1829
a(I1
g126
tp1830
a(I2
g144
tp1831
a(I3
g144
tp1832
a(I4
g129
tp1833
a(I0
g126
tp1834
a(I1
g126
tp1835
a(I2
g144
tp1836
a(I3
g126
tp1837
a(I4
g129
tp1838
a(I0
g126
tp1839
a(I1
g126
tp1840
a(I2
g144
tp1841
a(I3
g126
tp1842
a(I4
g129
tp1843
a(I0
g129
tp1844
a(I1
g126
tp1845
a(I2
g124
tp1846
a(I3
g126
tp1847
a(I4
g129
tp1848
a(I0
g129
tp1849
a(I1
g126
tp1850
a(I2
g124
tp1851
a(I3
g126
tp1852
a(I4
g129
tp1853
a(I0
g129
tp1854
a(I1
g126
tp1855
a(I2
g124
tp1856
a(I3
g126
tp1857
a(I4
g126
tp1858
a(I0
g129
tp1859
a(I1
g126
tp1860
a(I2
g124
tp1861
a(I3
g126
tp1862
a(I4
g126
tp1863
a(I0
g129
tp1864
a(I1
g126
tp1865
a(I2
g124
tp1866
a(I3
g144
tp1867
a(I4
g126
tp1868
a(I0
g129
tp1869
a(I1
g129
tp1870
a(I2
g124
tp1871
a(I3
g144
tp1872
a(I4
g144
tp1873
a(I0
g129
tp1874
a(I1
g129
tp1875
a(I2
g129
tp1876
a(I3
g144
tp1877
a(I4
g144
tp1878
a(I0
g129
tp1879
a(I1
g124
tp1880
a(I2
g129
tp1881
a(I3
g124
tp1882
a(I4
g144
tp1883
a(I0
g129
tp1884
a(I1
g124
tp1885
a(I2
g129
tp1886
a(I3
g124
tp1887
a(I4
g126
tp1888
a(I0
g129
tp1889
a(I1
g129
tp1890
a(I2
g126
tp1891
a(I3
g124
tp1892
a(I4
g126
tp1893
a(I0
g129
tp1894
a(I1
g129
tp1895
a(I2
g126
tp1896
a(I3
g144
tp1897
a(I4
g126
tp1898
a(I0
g129
tp1899
a(I1
g129
tp1900
a(I2
g126
tp1901
a(I3
g144
tp1902
a(I4
g144
tp1903
a(I0
g129
tp1904
a(I1
g126
tp1905
a(I2
g126
tp1906
a(I3
g124
tp1907
a(I4
g144
tp1908
a(I0
g129
tp1909
a(I1
g126
tp1910
a(I2
g129
tp1911
a(I3
g124
tp1912
a(I4
g144
tp1913
a(I0
g129
tp1914
a(I1
g129
tp1915
a(I2
g129
tp1916
a(I3
g124
tp1917
a(I4
g126
tp1918
a(I0
g129
tp1919
a(I1
g129
tp1920
a(I2
g124
tp1921
a(I3
g129
tp1922
a(I4
g126
tp1923
a(I0
g126
tp1924
a(I1
g129
tp1925
a(I2
g124
tp1926
a(I3
g129
tp1927
a(I4
g126
tp1928
a(I0
g126
tp1929
a(I1
g124
tp1930
a(I2
g124
tp1931
a(I3
g124
tp1932
a(I4
g129
tp1933
a(I0
g126
tp1934
a(I1
g124
tp1935
a(I2
g124
tp1936
a(I3
g124
tp1937
a(I4
g129
tp1938
a(I0
g126
tp1939
a(I1
g124
tp1940
a(I2
g124
tp1941
a(I3
g124
tp1942
a(I4
g129
tp1943
a(I0
g126
tp1944
a(I1
g124
tp1945
a(I2
g124
tp1946
a(I3
g129
tp1947
a(I4
g126
tp1948
a(I0
g144
tp1949
a(I1
g124
tp1950
a(I2
g124
tp1951
a(I3
g129
tp1952
a(I4
g126
tp1953
a(I0
g144
tp1954
a(I1
g129
tp1955
a(I2
g124
tp1956
a(I3
g129
tp1957
a(I4
g126
tp1958
a(I0
g144
tp1959
as.